     1                                  ;24L-3001 Romesha Afzaal 
     2                                  ;24L-3024 Aliza Nadeem 
     3                                  
     4                                  
     5                                  [org 0x0100]
     6 00000000 E9E013                  jmp start
     7                                  
     8                                  ; Game state
     9 00000003 00                      game_over_flag:        db 0
    10 00000004 00                      bonus_flag:            db 0
    11 00000005 0000                    player_score:          dw 0
    12 00000007 00                      scroll_active:         db 0
    13 00000008 0000                    time_counter:          dw 0
    14 0000000A 0700                    game_speed:            dw 7
    15 0000000C 00                      game_paused:           db 0
    16                                  ; Enemy car positions
    17                                  leftLane equ 48
    18                                  midLane equ 70
    19                                  rightLane equ 96
    20                                  
    21 0000000D 00                      LeftEnemy1Status db 0
    22 0000000E 0000                    LeftEnemy1Pos dw 0
    23 00000010 00                      LeftEnemy2Status db 0
    24 00000011 0000                    LeftEnemy2Pos dw 0
    25                                  
    26 00000013 00                      MidEnemy1Status db 0
    27 00000014 0000                    MidEnemy1Pos dw 0
    28 00000016 00                      MidEnemy2Status db 0
    29 00000017 0000                    MidEnemy2Pos dw 0
    30                                  
    31 00000019 00                      RightEnemy1Status db 0
    32 0000001A 0000                    RightEnemy1Pos dw 0
    33 0000001C 00                      RightEnemy2Status db 0
    34 0000001D 0000                    RightEnemy2Pos dw 0
    35                                  
    36 0000001F 00                      CurrentLane db 0
    37 00000020 0000                    EnemyTimer dw 0
    38                                  ENEMY_SPACE_VERTICAL equ 4
    39                                  ENEMY_SPACE_HORIZONTAL equ 3
    40                                  ENEMY_DELAY equ 8
    41 00000022 3412                    RandomValue dw 0x1234
    42                                  
    43                                  ; Bonus system
    44 00000024 00                      BonusStatus db 0
    45 00000025 00                      BonusLanePos db 0
    46 00000026 0000                    BonusPosition dw 0
    47 00000028 0000                    BonusTimer dw 0
    48                                  bonusDelayt equ 20
    49                                  BONUS_POINTS equ 50
    50                                  
    51                                  ; Player information
    52 0000002A E80A                    player_location:       dw 2792
    53 0000002C 01                      current_player_lane:   db 1
    54 0000002D 00000000                previous_keyboard_isr: dd 0
    55 00000031 00000000                previous_timer_isr:    dd 0
    56                                  
    57                                  ; Messages
    58 00000035 457869742047616D65-     exit_text1:     db 'Exit Game?', 0
    58 0000003E 3F00               
    59 00000040 41726520796F752073-     exit_text2:     db 'Are you sure?', 0
    59 00000049 7572653F00         
    60 0000004E 592F4E00                exit_text3:     db 'Y/N', 0
    61 00000052 5B2059205D2020205B-     exit_text3_formatted:  db '[ Y ]   [ N ]', 0
    61 0000005B 204E205D00         
    62 00000060 5468616E6B7320666F-     final_text1:    db 'Thanks for playing!', 0
    62 00000069 7220706C6179696E67-
    62 00000072 2100               
    63 00000074 46696E616C2053636F-     final_text2:    db 'Final Score: ', 0
    63 0000007D 72653A2000         
    64 00000082 0000<rep 64h>           screen_storage: times 100 dw 0
    65                                  
    66                                  ; Loading screen text
    67 0000014A 524F4D455348412041-     creator_names: db 'ROMESHA AFZAAL 24L-3001 AND ALIZA NADEEM 24L-3024', 0
    67 00000153 465A41414C2032344C-
    67 0000015C 2D3330303120414E44-
    67 00000165 20414C495A41204E41-
    67 0000016E 4445454D2032344C2D-
    67 00000177 3330323400         
    68 0000017C 46524F4D2042535345-     section_text: db 'FROM BSSE-3B PRESENT', 0
    68 00000185 2D3342205052455345-
    68 0000018E 4E5400             
    69 00000191 524143454341522047-     game_title: db 'RACECAR GAME', 0
    69 0000019A 414D4500           
    70 0000019E 4C4F4144494E472E2E-     loading_text: db 'LOADING...', 0
    70 000001A7 2E00               
    71 000001A9 505245535320414E59-     key_prompt: db 'PRESS ANY KEY TO CONTINUE', 0
    71 000001B2 204B455920544F2043-
    71 000001BB 4F4E54494E554500   
    72                                  
    73                                  ;For smoothness 
    74                                  wait_vsync:
    75 000001C3 50                      push ax
    76 000001C4 52                      push dx
    77 000001C5 51                      push cx
    78                                  
    79 000001C6 BADA03                  mov dx, 0x3DA
    80 000001C9 B98813                  mov cx, 5000
    81                                  
    82                                  .wait_end:
    83 000001CC EC                      in al, dx
    84 000001CD A808                    test al, 0x08
    85 000001CF 7405                    jz .wait_start
    86 000001D1 49                      dec cx
    87 000001D2 75F8                    jnz .wait_end
    88 000001D4 EB0B                    jmp .complete
    89                                  
    90                                  .wait_start:
    91 000001D6 B98813                  mov cx, 5000
    92                                  .wait_loop:
    93 000001D9 EC                      in al, dx
    94 000001DA A808                    test al, 0x08
    95 000001DC 7503                    jnz .complete
    96 000001DE 49                      dec cx
    97 000001DF 75F8                    jnz .wait_loop
    98                                  
    99                                  .complete:
   100 000001E1 59                      pop cx
   101 000001E2 5A                      pop dx
   102 000001E3 58                      pop ax
   103 000001E4 C3                      ret
   104                                  
   105                                  ;LOADING SCREEN 
   106                                  display_string:
   107 000001E5 55                      push bp
   108 000001E6 89E5                    mov bp, sp
   109 000001E8 06                      push es
   110 000001E9 50                      push ax
   111 000001EA 51                      push cx
   112 000001EB 56                      push si
   113 000001EC 57                      push di
   114 000001ED B800B8                  mov ax, 0xb800
   115 000001F0 8EC0                    mov es, ax
   116 000001F2 8B4606                  mov ax, [bp+6]
   117 000001F5 BB5000                  mov bx, 80
   118 000001F8 F7E3                    mul bx
   119 000001FA 034608                  add ax, [bp+8]
   120 000001FD D1E0                    shl ax, 1
   121 000001FF 89C7                    mov di, ax
   122                                  
   123 00000201 8B7604                  mov si, [bp+4]
   124 00000204 8A660A                  mov ah, [bp+10]
   125                                  .char_loop:
   126 00000207 AC                      lodsb
   127 00000208 3C00                    cmp al, 0
   128 0000020A 7403                    je .string_done
   129 0000020C AB                      stosw
   130 0000020D EBF8                    jmp .char_loop
   131                                  .string_done:
   132 0000020F 5F                      pop di
   133 00000210 5E                      pop si
   134 00000211 59                      pop cx
   135 00000212 58                      pop ax
   136 00000213 07                      pop es
   137 00000214 5D                      pop bp
   138 00000215 C20800                  ret 8
   139                                  
   140                                  clear_display:
   141 00000218 06                      push es
   142 00000219 50                      push ax
   143 0000021A 57                      push di
   144 0000021B B800B8                  mov ax, 0xb800
   145 0000021E 8EC0                    mov es, ax
   146 00000220 BF0000                  mov di, 0
   147                                  .clear_loop:
   148 00000223 26C7052001              mov word[es:di], 0x0120
   149 00000228 83C702                  add di, 2
   150 0000022B 81FFA00F                cmp di, 4000
   151 0000022F 75F2                    jne .clear_loop
   152 00000231 5F                      pop di
   153 00000232 58                      pop ax
   154 00000233 07                      pop es
   155 00000234 C3                      ret
   156                                  
   157                                  draw_frame:
   158 00000235 55                      push bp
   159 00000236 89E5                    mov bp, sp
   160 00000238 06                      push es
   161 00000239 50                      push ax
   162 0000023A 57                      push di
   163 0000023B B800B8                  mov ax, 0xb800
   164 0000023E 8EC0                    mov es, ax
   165 00000240 B80F00                  mov ax, 15
   166 00000243 BB5000                  mov bx, 80
   167 00000246 F7E3                    mul bx
   168 00000248 83C019                  add ax, 25
   169 0000024B D1E0                    shl ax, 1
   170 0000024D 89C7                    mov di, ax
   171 0000024F B85B0F                  mov ax, 0x0F5B
   172 00000252 268905                  mov [es:di], ax
   173 00000255 83C73E                  add di, 62
   174 00000258 B85D0F                  mov ax, 0x0F5D
   175 0000025B 268905                  mov [es:di], ax
   176 0000025E 5F                      pop di
   177 0000025F 58                      pop ax
   178 00000260 07                      pop es
   179 00000261 5D                      pop bp
   180 00000262 C3                      ret
   181                                  
   182                                  update_progress_bar:
   183 00000263 55                      push bp
   184 00000264 89E5                    mov bp, sp
   185 00000266 06                      push es
   186 00000267 50                      push ax
   187 00000268 53                      push bx
   188 00000269 51                      push cx
   189 0000026A 57                      push di
   190 0000026B B800B8                  mov ax, 0xb800
   191 0000026E 8EC0                    mov es, ax
   192 00000270 8B4604                  mov ax, [bp+4]
   193 00000273 BB1E00                  mov bx, 30
   194 00000276 F7E3                    mul bx
   195 00000278 BB6400                  mov bx, 100
   196 0000027B F7F3                    div bx
   197 0000027D 89C1                    mov cx, ax
   198 0000027F BF9409                  mov di, 15 * 160 + 26 * 2
   199 00000282 B8DB0B                  mov ax, 0x0BDB
   200                                  .bar_loop:
   201 00000285 E309                    jcxz .bar_done
   202 00000287 268905                  mov [es:di], ax
   203 0000028A 83C702                  add di, 2
   204 0000028D 49                      dec cx
   205 0000028E EBF5                    jmp .bar_loop
   206                                  .bar_done:
   207 00000290 5F                      pop di
   208 00000291 59                      pop cx
   209 00000292 5B                      pop bx
   210 00000293 58                      pop ax
   211 00000294 07                      pop es
   212 00000295 5D                      pop bp
   213 00000296 C20200                  ret 2
   214                                  
   215                                  show_percentage:
   216 00000299 55                      push bp
   217 0000029A 89E5                    mov bp, sp
   218 0000029C 60                      pusha
   219 0000029D 06                      push es
   220 0000029E B800B8                  mov ax, 0xb800
   221 000002A1 8EC0                    mov es, ax
   222 000002A3 BFEC0A                  mov di, 17 * 160 + 38 * 2
   223 000002A6 8B4604                  mov ax, [bp+4]
   224 000002A9 89C3                    mov bx, ax
   225 000002AB 31D2                    xor dx, dx
   226 000002AD 83F864                  cmp ax, 100
   227 000002B0 7512                    jne .not_full
   228 000002B2 B8310E                  mov ax, 0x0E31
   229 000002B5 AB                      stosw
   230 000002B6 B8300E                  mov ax, 0x0E30
   231 000002B9 AB                      stosw
   232 000002BA B8300E                  mov ax, 0x0E30
   233 000002BD AB                      stosw
   234 000002BE B8250E                  mov ax, 0x0E25
   235 000002C1 AB                      stosw
   236 000002C2 EB25                    jmp .percent_done
   237                                  .not_full:
   238 000002C4 31D2                    xor dx, dx
   239 000002C6 89D8                    mov ax, bx
   240 000002C8 B10A                    mov cl, 10
   241 000002CA F6F1                    div cl
   242 000002CC 3C00                    cmp al, 0
   243 000002CE 7405                    je .skip_tens
   244 000002D0 0430                    add al, '0'
   245 000002D2 B40E                    mov ah, 0x0E
   246 000002D4 AB                      stosw
   247                                  .skip_tens:
   248 000002D5 88E0                    mov al, ah
   249 000002D7 0430                    add al, '0'
   250 000002D9 B40E                    mov ah, 0x0E
   251 000002DB AB                      stosw
   252 000002DC B8250E                  mov ax, 0x0E25
   253 000002DF AB                      stosw
   254 000002E0 B90600                  mov cx, 6
   255                                  .clean_loop:
   256 000002E3 B8200E                  mov ax, 0x0E20
   257 000002E6 AB                      stosw
   258 000002E7 E2FA                    loop .clean_loop
   259                                  .percent_done:
   260 000002E9 07                      pop es
   261 000002EA 61                      popa
   262 000002EB 5D                      pop bp
   263 000002EC C20200                  ret 2
   264                                  
   265                                  ;TIMER INT 
   266                                  timer_handler:
   267 000002EF 50                      push ax
   268 000002F0 1E                      push ds
   269 000002F1 0E                      push cs
   270 000002F2 1F                      pop ds
   271 000002F3 803E[0C00]01            cmp byte [game_paused], 1
   272 000002F8 7417                    je .timer_exit
   273 000002FA FF06[0800]              inc word [time_counter]
   274 000002FE A1[0800]                mov ax, [time_counter]
   275 00000301 31D2                    xor dx, dx
   276 00000303 F736[0A00]              div word [game_speed]
   277 00000307 83FA00                  cmp dx, 0
   278 0000030A 7505                    jne .timer_exit
   279 0000030C C606[0700]01            mov byte [scroll_active], 1
   280                                  .timer_exit:
   281 00000311 B020                    mov al, 0x20
   282 00000313 E620                    out 0x20, al
   283 00000315 1F                      pop ds
   284 00000316 58                      pop ax
   285 00000317 CF                      iret
   286                                  
   287                                  ;KEYBOARD INT 
   288                                  keyboard_handler:
   289 00000318 50                      push ax
   290 00000319 1E                      push ds
   291 0000031A 06                      push es
   292 0000031B 0E                      push cs
   293 0000031C 1F                      pop ds
   294 0000031D 803E[0C00]01            cmp byte [game_paused], 1
   295 00000322 743E                    je .check_exit
   296 00000324 803E[0300]01            cmp byte [game_over_flag], 1
   297 00000329 7462                    je .keyboard_exit
   298 0000032B E460                    in al, 0x60
   299 0000032D 3C01                    cmp al, 0x01
   300 0000032F 740A                    je .escape_pressed
   301 00000331 3C4B                    cmp al, 0x4B
   302 00000333 7417                    je .left_pressed
   303 00000335 3C4D                    cmp al, 0x4D
   304 00000337 741E                    je .right_pressed
   305 00000339 EB52                    jmp .keyboard_exit
   306                                  .escape_pressed:
   307 0000033B 803E[0C00]01            cmp byte [game_paused], 1
   308 00000340 744B                    je .keyboard_exit
   309 00000342 C606[0C00]01            mov byte [game_paused], 1
   310 00000347 E84B00                  call show_exit_dialog
   311 0000034A EB41                    jmp .keyboard_exit
   312                                  .left_pressed:
   313 0000034C E874FE                  call wait_vsync
   314 0000034F E8B70C                  call clear_player_car
   315 00000352 E82601                  call move_car_left
   316 00000355 EB36                    jmp .keyboard_exit
   317                                  .right_pressed:
   318 00000357 E869FE                  call wait_vsync
   319 0000035A E8AC0C                  call clear_player_car
   320 0000035D E83A01                  call move_car_right
   321 00000360 EB2B                    jmp .keyboard_exit
   322                                  .check_exit:
   323 00000362 E460                    in al, 0x60
   324 00000364 3C15                    cmp al, 0x15
   325 00000366 7406                    je .exit_confirmed
   326 00000368 3C31                    cmp al, 0x31
   327 0000036A 740C                    je .continue_game
   328 0000036C EB1F                    jmp .keyboard_exit
   329                                  .exit_confirmed:
   330 0000036E E8AD00                  call display_final_score
   331 00000371 C606[0300]01            mov byte [game_over_flag], 1
   332 00000376 EB15                    jmp .keyboard_exit
   333                                  .continue_game:
   334 00000378 E87700                  call hide_exit_dialog
   335 0000037B C606[0C00]00            mov byte [game_paused], 0
   336 00000380 2EFF36[2A00]            push word [cs:player_location]
   337 00000385 682045                  push 0x4520
   338 00000388 E8A90D                  call drawCar
   339 0000038B EB00                    jmp .keyboard_exit
   340                                  .keyboard_exit:
   341 0000038D B020                    mov al, 0x20
   342 0000038F E620                    out 0x20, al
   343 00000391 07                      pop es
   344 00000392 1F                      pop ds
   345 00000393 58                      pop ax
   346 00000394 CF                      iret
   347                                  
   348                                  ;ESC LOGIC 
   349                                  show_exit_dialog:
   350 00000395 60                      pusha
   351 00000396 06                      push es
   352 00000397 1E                      push ds
   353 00000398 B800B8                  mov ax, 0xB800
   354 0000039B 8ED8                    mov ds, ax
   355 0000039D 0E                      push cs
   356 0000039E 07                      pop es
   357 0000039F BE7C06                  mov si, 160*10 + 60
   358 000003A2 B90500                  mov cx, 5
   359 000003A5 BF[8200]                mov di, screen_storage
   360                                  .save_screen:
   361 000003A8 51                      push cx
   362 000003A9 B91400                  mov cx, 20
   363 000003AC F3A5                    rep movsw
   364 000003AE 83C678                  add si, 160 - 40
   365 000003B1 59                      pop cx
   366 000003B2 E2F4                    loop .save_screen
   367 000003B4 B800B8                  mov ax, 0xB800
   368 000003B7 8EC0                    mov es, ax
   369 000003B9 0E                      push cs
   370 000003BA 1F                      pop ds
   371 000003BB BF7C06                  mov di, 160*10 + 60
   372 000003BE B90500                  mov cx, 5
   373                                  .draw_background:
   374 000003C1 51                      push cx
   375 000003C2 57                      push di
   376 000003C3 B91400                  mov cx, 20
   377 000003C6 B8204F                  mov ax, 0x4F20
   378 000003C9 F3AB                    rep stosw
   379 000003CB 5F                      pop di
   380 000003CC 81C7A000                add di, 160
   381 000003D0 59                      pop cx
   382 000003D1 E2EE                    loop .draw_background
   383 000003D3 BF2607                  mov di, 160*11 + 70
   384 000003D6 BE[3500]                mov si, exit_text1
   385 000003D9 E83500                  call show_dialog_text
   386 000003DC BFC207                  mov di, 160*12 + 66
   387 000003DF BE[4000]                mov si, exit_text2
   388 000003E2 E82C00                  call show_dialog_text
   389 000003E5 BF6008                  mov di, 160*13 + 64
   390 000003E8 BE[5200]                mov si, exit_text3_formatted
   391 000003EB E82300                  call show_dialog_text
   392 000003EE 1F                      pop ds
   393 000003EF 07                      pop es
   394 000003F0 61                      popa
   395 000003F1 C3                      ret
   396                                  
   397                                  hide_exit_dialog:
   398 000003F2 60                      pusha
   399 000003F3 06                      push es
   400 000003F4 B800B8                  mov ax, 0xB800
   401 000003F7 8EC0                    mov es, ax
   402 000003F9 BF7C06                  mov di, 160*10 + 60
   403 000003FC BE[8200]                mov si, screen_storage
   404 000003FF B90500                  mov cx, 5
   405                                  .restore_screen:
   406 00000402 51                      push cx
   407 00000403 B91400                  mov cx, 20
   408 00000406 F3A5                    rep movsw
   409 00000408 83C778                  add di, 160 - 40
   410 0000040B 59                      pop cx
   411 0000040C E2F4                    loop .restore_screen
   412 0000040E 07                      pop es
   413 0000040F 61                      popa
   414 00000410 C3                      ret
   415                                  
   416                                  show_dialog_text:
   417 00000411 60                      pusha
   418 00000412 B44F                    mov ah, 0x4F
   419                                  .text_loop:
   420 00000414 AC                      lodsb
   421 00000415 3C00                    cmp al, 0
   422 00000417 7403                    je .text_done
   423 00000419 AB                      stosw
   424 0000041A EBF8                    jmp .text_loop
   425                                  .text_done:
   426 0000041C 61                      popa
   427 0000041D C3                      ret
   428                                  
   429                                  display_final_score:
   430 0000041E 60                      pusha
   431 0000041F 06                      push es
   432 00000420 B800B8                  mov ax, 0xB800
   433 00000423 8EC0                    mov es, ax
   434 00000425 BF0000                  mov di, 0
   435 00000428 B82007                  mov ax, 0x0720
   436 0000042B B9D007                  mov cx, 2000
   437 0000042E F3AB                    rep stosw
   438 00000430 BF7C06                  mov di, 160*10 + 60
   439 00000433 BE[6000]                mov si, final_text1
   440 00000436 B40E                    mov ah, 0x0E
   441                                  .text_loop1:
   442 00000438 AC                      lodsb
   443 00000439 3C00                    cmp al, 0
   444 0000043B 7403                    je .show_score_text
   445 0000043D AB                      stosw
   446 0000043E EBF8                    jmp .text_loop1
   447                                  .show_score_text:
   448 00000440 BFBC07                  mov di, 160*12 + 60
   449 00000443 BE[7400]                mov si, final_text2
   450 00000446 B40E                    mov ah, 0x0E
   451                                  .text_loop2:
   452 00000448 AC                      lodsb
   453 00000449 3C00                    cmp al, 0
   454 0000044B 7403                    je .display_score
   455 0000044D AB                      stosw
   456 0000044E EBF8                    jmp .text_loop2
   457                                  .display_score:
   458 00000450 BFD607                  mov di, 160*12 + 86
   459 00000453 0E                      push cs
   460 00000454 1F                      pop ds
   461 00000455 A1[0500]                mov ax, [player_score]
   462 00000458 BB0A00                  mov bx, 10
   463 0000045B B90000                  mov cx, 0
   464                                  .score_loop:
   465 0000045E 31D2                    xor dx, dx
   466 00000460 F7F3                    div bx
   467 00000462 80C230                  add dl, '0'
   468 00000465 52                      push dx
   469 00000466 41                      inc cx
   470 00000467 83F800                  cmp ax, 0
   471 0000046A 75F2                    jne .score_loop
   472                                  .display_digits:
   473 0000046C 5A                      pop dx
   474 0000046D 88D0                    mov al, dl
   475 0000046F B40E                    mov ah, 0x0E
   476 00000471 AB                      stosw
   477 00000472 E2F8                    loop .display_digits
   478 00000474 B400                    mov ah, 0
   479 00000476 CD16                    int 0x16
   480 00000478 07                      pop es
   481 00000479 61                      popa
   482 0000047A C3                      ret
   483                                  
   484                                  ;PLAYER CAR LOGIC 
   485                                  move_car_left:
   486 0000047B 2E803E[2C00]00          cmp byte [cs:current_player_lane], 0
   487 00000481 7416                    je .no_movement
   488 00000483 2EFE0E[2C00]            dec byte [cs:current_player_lane]
   489 00000488 2E832E[2A00]1A          sub word [cs:player_location], 26
   490 0000048E 2EFF36[2A00]            push word [cs:player_location]
   491 00000493 682045                  push 0x4520
   492 00000496 E89B0C                  call drawCar
   493                                  .no_movement:
   494 00000499 C3                      ret
   495                                  
   496                                  move_car_right:
   497 0000049A 2E803E[2C00]02          cmp byte [cs:current_player_lane], 2
   498 000004A0 7416                    je .no_movement
   499 000004A2 2EFE06[2C00]            inc byte [cs:current_player_lane]
   500 000004A7 2E8306[2A00]1A          add word [cs:player_location], 26
   501 000004AD 2EFF36[2A00]            push word [cs:player_location]
   502 000004B2 682045                  push 0x4520
   503 000004B5 E87C0C                  call drawCar
   504                                  .no_movement:
   505 000004B8 C3                      ret
   506                                  
   507                                  ;INTERRUPT MANAGEMENT 
   508                                  setup_keyboard:
   509 000004B9 50                      push ax
   510 000004BA 06                      push es
   511 000004BB FA                      cli
   512 000004BC B80000                  mov ax, 0
   513 000004BF 8EC0                    mov es, ax
   514 000004C1 26A12400                mov ax, [es:9*4]
   515 000004C5 2EA3[2D00]              mov word [cs:previous_keyboard_isr], ax
   516 000004C9 26A12600                mov ax, [es:9*4+2]
   517 000004CD 2EA3[2F00]              mov word [cs:previous_keyboard_isr+2], ax
   518 000004D1 B8[1803]                mov ax, keyboard_handler
   519 000004D4 26A32400                mov [es:9*4], ax
   520 000004D8 268C0E2600              mov [es:9*4+2], cs
   521 000004DD FB                      sti
   522 000004DE 07                      pop es
   523 000004DF 58                      pop ax
   524 000004E0 C3                      ret
   525                                  
   526                                  setup_timer:
   527 000004E1 50                      push ax
   528 000004E2 06                      push es
   529 000004E3 FA                      cli
   530 000004E4 B80000                  mov ax, 0
   531 000004E7 8EC0                    mov es, ax
   532 000004E9 26A12000                mov ax, [es:8*4]
   533 000004ED 2EA3[3100]              mov word [cs:previous_timer_isr], ax
   534 000004F1 26A12200                mov ax, [es:8*4+2]
   535 000004F5 2EA3[3300]              mov word [cs:previous_timer_isr+2], ax
   536 000004F9 B8[EF02]                mov ax, timer_handler
   537 000004FC 26A32000                mov [es:8*4], ax
   538 00000500 268C0E2200              mov [es:8*4+2], cs
   539 00000505 FB                      sti
   540 00000506 07                      pop es
   541 00000507 58                      pop ax
   542 00000508 C3                      ret
   543                                  
   544                                  restore_keyboard:
   545 00000509 50                      push ax
   546 0000050A 06                      push es
   547 0000050B E8FB0A                  call clear_player_car
   548 0000050E FA                      cli
   549 0000050F B80000                  mov ax, 0
   550 00000512 8EC0                    mov es, ax
   551 00000514 2EA1[2D00]              mov ax, word [cs:previous_keyboard_isr]
   552 00000518 26A32400                mov [es:9*4], ax
   553 0000051C 2EA1[2F00]              mov ax, word [cs:previous_keyboard_isr+2]
   554 00000520 26A32600                mov [es:9*4+2], ax
   555 00000524 FB                      sti
   556 00000525 07                      pop es
   557 00000526 58                      pop ax
   558 00000527 C3                      ret
   559                                  
   560                                  restore_timer:
   561 00000528 50                      push ax
   562 00000529 06                      push es
   563 0000052A FA                      cli
   564 0000052B B80000                  mov ax, 0
   565 0000052E 8EC0                    mov es, ax
   566 00000530 2EA1[3100]              mov ax, word [cs:previous_timer_isr]
   567 00000534 26A32000                mov [es:8*4], ax
   568 00000538 2EA1[3300]              mov ax, word [cs:previous_timer_isr+2]
   569 0000053C 26A32200                mov [es:8*4+2], ax
   570 00000540 FB                      sti
   571 00000541 07                      pop es
   572 00000542 58                      pop ax
   573 00000543 C3                      ret
   574                                  
   575                                  ;ENEMY CAR FUNCTIONALITY 
   576                                  generate_random:
   577 00000544 52                      push dx
   578 00000545 51                      push cx
   579 00000546 53                      push bx
   580 00000547 2EA1[2200]              mov ax, [cs:RandomValue]
   581 0000054B B94B00                  mov cx, 75
   582 0000054E F7E1                    mul cx
   583 00000550 83C04A                  add ax, 74
   584 00000553 2EA3[2200]              mov [cs:RandomValue], ax
   585 00000557 5B                      pop bx
   586 00000558 59                      pop cx
   587 00000559 5A                      pop dx
   588 0000055A C3                      ret
   589                                  
   590                                  get_random_lane:
   591 0000055B 50                      push ax
   592 0000055C 52                      push dx
   593 0000055D E8E4FF                  call generate_random
   594 00000560 31D2                    xor dx, dx
   595 00000562 B90300                  mov cx, 3
   596 00000565 F7F1                    div cx
   597 00000567 88D3                    mov bl, dl
   598 00000569 5A                      pop dx
   599 0000056A 58                      pop ax
   600 0000056B C3                      ret
   601                                  
   602                                  init_enemy_system:
   603 0000056C 50                      push ax
   604 0000056D 53                      push bx
   605 0000056E B400                    mov ah, 0x00
   606 00000570 CD1A                    int 0x1A
   607 00000572 2E8916[2200]            mov [cs:RandomValue], dx
   608 00000577 2EC606[1F00]00          mov byte [cs:CurrentLane], 0
   609 0000057D 2EC706[2000]0000        mov word [cs:EnemyTimer], 0
   610 00000584 2EC606[0D00]00          mov byte [cs:LeftEnemy1Status], 0
   611 0000058A 2EC606[1000]00          mov byte [cs:LeftEnemy2Status], 0
   612 00000590 2EC606[1300]00          mov byte [cs:MidEnemy1Status], 0
   613 00000596 2EC606[1600]00          mov byte [cs:MidEnemy2Status], 0
   614 0000059C 2EC606[1900]00          mov byte [cs:RightEnemy1Status], 0
   615 000005A2 2EC606[1C00]00          mov byte [cs:RightEnemy2Status], 0
   616 000005A8 2EC606[2400]00          mov byte [cs:BonusStatus], 0
   617 000005AE 2EC706[2800]1400        mov word [cs:BonusTimer], bonusDelayt
   618 000005B5 5B                      pop bx
   619 000005B6 58                      pop ax
   620 000005B7 C3                      ret
   621                                  
   622                                  spawn_enemies:
   623 000005B8 50                      push ax
   624 000005B9 53                      push bx
   625 000005BA 51                      push cx
   626 000005BB 2EA1[2000]              mov ax, [cs:EnemyTimer]
   627 000005BF 83F800                  cmp ax, 0
   628 000005C2 7E07                    jle .attempt_spawn
   629 000005C4 2EFF0E[2000]            dec word [cs:EnemyTimer]
   630 000005C9 EB46                    jmp .spawn_done
   631                                  .attempt_spawn:
   632 000005CB E88DFF                  call get_random_lane
   633 000005CE 80FB00                  cmp bl, 0
   634 000005D1 7407                    je .try_left
   635 000005D3 80FB01                  cmp bl, 1
   636 000005D6 740B                    je .try_mid
   637 000005D8 EB12                    jmp .try_right
   638                                  .try_left:
   639 000005DA E83800                  call spawn_left_lane
   640 000005DD 3C01                    cmp al, 1
   641 000005DF 7423                    je .spawn_success
   642 000005E1 EB12                    jmp .try_another
   643                                  .try_mid:
   644 000005E3 E89E00                  call spawn_mid_lane
   645 000005E6 3C01                    cmp al, 1
   646 000005E8 741A                    je .spawn_success
   647 000005EA EB09                    jmp .try_another
   648                                  .try_right:
   649 000005EC E80401                  call spawn_right_lane
   650 000005EF 3C01                    cmp al, 1
   651 000005F1 7411                    je .spawn_success
   652 000005F3 EB00                    jmp .try_another
   653                                  .try_another:
   654 000005F5 E84CFF                  call generate_random
   655 000005F8 83E00F                  and ax, 0x0F
   656 000005FB 83C005                  add ax, 5
   657 000005FE 2EA3[2000]              mov [cs:EnemyTimer], ax
   658 00000602 EB0D                    jmp .spawn_done
   659                                  .spawn_success:
   660 00000604 E83DFF                  call generate_random
   661 00000607 83E01F                  and ax, 0x1F
   662 0000060A 83C008                  add ax, ENEMY_DELAY
   663 0000060D 2EA3[2000]              mov [cs:EnemyTimer], ax
   664                                  .spawn_done:
   665 00000611 59                      pop cx
   666 00000612 5B                      pop bx
   667 00000613 58                      pop ax
   668 00000614 C3                      ret
   669                                  
   670                                  spawn_left_lane:
   671 00000615 53                      push bx
   672 00000616 2E803E[0D00]01          cmp byte [cs:LeftEnemy1Status], 1
   673 0000061C 750C                    jne .check_slot1
   674 0000061E 2E803E[1000]01          cmp byte [cs:LeftEnemy2Status], 1
   675 00000624 7517                    jne .check_slot2
   676 00000626 B000                    mov al, 0
   677 00000628 EB58                    jmp .spawn_complete
   678                                  .check_slot1:
   679 0000062A 2E803E[1000]00          cmp byte [cs:LeftEnemy2Status], 0
   680 00000630 741E                    je .verify_horizontal1
   681 00000632 2EA1[1100]              mov ax, [cs:LeftEnemy2Pos]
   682 00000636 83F804                  cmp ax, ENEMY_SPACE_VERTICAL
   683 00000639 7C02                    jl .check_slot2
   684 0000063B EB13                    jmp .verify_horizontal1
   685                                  .check_slot2:
   686 0000063D 2E803E[0D00]00          cmp byte [cs:LeftEnemy1Status], 0
   687 00000643 7423                    je .verify_horizontal2
   688 00000645 2EA1[0E00]              mov ax, [cs:LeftEnemy1Pos]
   689 00000649 83F804                  cmp ax, ENEMY_SPACE_VERTICAL
   690 0000064C 7C32                    jl .spawn_failed
   691 0000064E EB18                    jmp .verify_horizontal2
   692                                  .verify_horizontal1:
   693 00000650 E80F01                  call check_horizontal_space
   694 00000653 3C00                    cmp al, 0
   695 00000655 74E6                    je .check_slot2
   696 00000657 2EC606[0D00]01          mov byte [cs:LeftEnemy1Status], 1
   697 0000065D 2EC706[0E00]FAFF        mov word [cs:LeftEnemy1Pos], -6
   698 00000664 B001                    mov al, 1
   699 00000666 EB1A                    jmp .spawn_complete
   700                                  .verify_horizontal2:
   701 00000668 E8F700                  call check_horizontal_space
   702 0000066B 3C00                    cmp al, 0
   703 0000066D 7411                    je .spawn_failed
   704 0000066F 2EC606[1000]01          mov byte [cs:LeftEnemy2Status], 1
   705 00000675 2EC706[1100]FAFF        mov word [cs:LeftEnemy2Pos], -6
   706 0000067C B001                    mov al, 1
   707 0000067E EB02                    jmp .spawn_complete
   708                                  .spawn_failed:
   709 00000680 B000                    mov al, 0
   710                                  .spawn_complete:
   711 00000682 5B                      pop bx
   712 00000683 C3                      ret
   713                                  
   714                                  spawn_mid_lane:
   715 00000684 53                      push bx
   716 00000685 2E803E[1300]01          cmp byte [cs:MidEnemy1Status], 1
   717 0000068B 750C                    jne .check_slot1
   718 0000068D 2E803E[1600]01          cmp byte [cs:MidEnemy2Status], 1
   719 00000693 7517                    jne .check_slot2
   720 00000695 B000                    mov al, 0
   721 00000697 EB58                    jmp .spawn_complete
   722                                  .check_slot1:
   723 00000699 2E803E[1600]00          cmp byte [cs:MidEnemy2Status], 0
   724 0000069F 741E                    je .verify_horizontal1
   725 000006A1 2EA1[1700]              mov ax, [cs:MidEnemy2Pos]
   726 000006A5 83F804                  cmp ax, ENEMY_SPACE_VERTICAL
   727 000006A8 7C02                    jl .check_slot2
   728 000006AA EB13                    jmp .verify_horizontal1
   729                                  .check_slot2:
   730 000006AC 2E803E[1300]00          cmp byte [cs:MidEnemy1Status], 0
   731 000006B2 7423                    je .verify_horizontal2
   732 000006B4 2EA1[1400]              mov ax, [cs:MidEnemy1Pos]
   733 000006B8 83F804                  cmp ax, ENEMY_SPACE_VERTICAL
   734 000006BB 7C32                    jl .spawn_failed
   735 000006BD EB18                    jmp .verify_horizontal2
   736                                  .verify_horizontal1:
   737 000006BF E8A000                  call check_horizontal_space
   738 000006C2 3C00                    cmp al, 0
   739 000006C4 74E6                    je .check_slot2
   740 000006C6 2EC606[1300]01          mov byte [cs:MidEnemy1Status], 1
   741 000006CC 2EC706[1400]FAFF        mov word [cs:MidEnemy1Pos], -6
   742 000006D3 B001                    mov al, 1
   743 000006D5 EB1A                    jmp .spawn_complete
   744                                  .verify_horizontal2:
   745 000006D7 E88800                  call check_horizontal_space
   746 000006DA 3C00                    cmp al, 0
   747 000006DC 7411                    je .spawn_failed
   748 000006DE 2EC606[1600]01          mov byte [cs:MidEnemy2Status], 1
   749 000006E4 2EC706[1700]FAFF        mov word [cs:MidEnemy2Pos], -6
   750 000006EB B001                    mov al, 1
   751 000006ED EB02                    jmp .spawn_complete
   752                                  .spawn_failed:
   753 000006EF B000                    mov al, 0
   754                                  .spawn_complete:
   755 000006F1 5B                      pop bx
   756 000006F2 C3                      ret
   757                                  
   758                                  spawn_right_lane:
   759 000006F3 53                      push bx
   760 000006F4 2E803E[1900]01          cmp byte [cs:RightEnemy1Status], 1
   761 000006FA 750C                    jne .check_slot1
   762 000006FC 2E803E[1C00]01          cmp byte [cs:RightEnemy2Status], 1
   763 00000702 7517                    jne .check_slot2
   764 00000704 B000                    mov al, 0
   765 00000706 EB58                    jmp .spawn_complete
   766                                  .check_slot1:
   767 00000708 2E803E[1C00]00          cmp byte [cs:RightEnemy2Status], 0
   768 0000070E 741E                    je .verify_horizontal1
   769 00000710 2EA1[1D00]              mov ax, [cs:RightEnemy2Pos]
   770 00000714 83F804                  cmp ax, ENEMY_SPACE_VERTICAL
   771 00000717 7C02                    jl .check_slot2
   772 00000719 EB13                    jmp .verify_horizontal1
   773                                  .check_slot2:
   774 0000071B 2E803E[1900]00          cmp byte [cs:RightEnemy1Status], 0
   775 00000721 7423                    je .verify_horizontal2
   776 00000723 2EA1[1A00]              mov ax, [cs:RightEnemy1Pos]
   777 00000727 83F804                  cmp ax, ENEMY_SPACE_VERTICAL
   778 0000072A 7C32                    jl .spawn_failed
   779 0000072C EB18                    jmp .verify_horizontal2
   780                                  .verify_horizontal1:
   781 0000072E E83100                  call check_horizontal_space
   782 00000731 3C00                    cmp al, 0
   783 00000733 74E6                    je .check_slot2
   784 00000735 2EC606[1900]01          mov byte [cs:RightEnemy1Status], 1
   785 0000073B 2EC706[1A00]FAFF        mov word [cs:RightEnemy1Pos], -6
   786 00000742 B001                    mov al, 1
   787 00000744 EB1A                    jmp .spawn_complete
   788                                  .verify_horizontal2:
   789 00000746 E81900                  call check_horizontal_space
   790 00000749 3C00                    cmp al, 0
   791 0000074B 7411                    je .spawn_failed
   792 0000074D 2EC606[1C00]01          mov byte [cs:RightEnemy2Status], 1
   793 00000753 2EC706[1D00]FAFF        mov word [cs:RightEnemy2Pos], -6
   794 0000075A B001                    mov al, 1
   795 0000075C EB02                    jmp .spawn_complete
   796                                  .spawn_failed:
   797 0000075E B000                    mov al, 0
   798                                  .spawn_complete:
   799 00000760 5B                      pop bx
   800 00000761 C3                      ret
   801                                  
   802                                  check_horizontal_space:
   803 00000762 53                      push bx
   804 00000763 51                      push cx
   805 00000764 B90000                  mov cx, 0
   806 00000767 2E803E[0D00]01          cmp byte [cs:LeftEnemy1Status], 1
   807 0000076D 750F                    jne .check_left2
   808 0000076F 2EA1[0E00]              mov ax, [cs:LeftEnemy1Pos]
   809 00000773 83F803                  cmp ax, ENEMY_SPACE_HORIZONTAL
   810 00000776 7D06                    jge .check_left2
   811 00000778 83F800                  cmp ax, 0
   812 0000077B 7C01                    jl .check_left2
   813 0000077D 41                      inc cx
   814                                  .check_left2:
   815 0000077E 2E803E[1000]01          cmp byte [cs:LeftEnemy2Status], 1
   816 00000784 750F                    jne .check_mid1
   817 00000786 2EA1[1100]              mov ax, [cs:LeftEnemy2Pos]
   818 0000078A 83F803                  cmp ax, ENEMY_SPACE_HORIZONTAL
   819 0000078D 7D06                    jge .check_mid1
   820 0000078F 83F800                  cmp ax, 0
   821 00000792 7C01                    jl .check_mid1
   822 00000794 41                      inc cx
   823                                  .check_mid1:
   824 00000795 2E803E[1300]01          cmp byte [cs:MidEnemy1Status], 1
   825 0000079B 750F                    jne .check_mid2
   826 0000079D 2EA1[1400]              mov ax, [cs:MidEnemy1Pos]
   827 000007A1 83F803                  cmp ax, ENEMY_SPACE_HORIZONTAL
   828 000007A4 7D06                    jge .check_mid2
   829 000007A6 83F800                  cmp ax, 0
   830 000007A9 7C01                    jl .check_mid2
   831 000007AB 41                      inc cx
   832                                  .check_mid2:
   833 000007AC 2E803E[1600]01          cmp byte [cs:MidEnemy2Status], 1
   834 000007B2 750F                    jne .check_right1
   835 000007B4 2EA1[1700]              mov ax, [cs:MidEnemy2Pos]
   836 000007B8 83F803                  cmp ax, ENEMY_SPACE_HORIZONTAL
   837 000007BB 7D06                    jge .check_right1
   838 000007BD 83F800                  cmp ax, 0
   839 000007C0 7C01                    jl .check_right1
   840 000007C2 41                      inc cx
   841                                  .check_right1:
   842 000007C3 2E803E[1900]01          cmp byte [cs:RightEnemy1Status], 1
   843 000007C9 750F                    jne .check_right2
   844 000007CB 2EA1[1A00]              mov ax, [cs:RightEnemy1Pos]
   845 000007CF 83F803                  cmp ax, ENEMY_SPACE_HORIZONTAL
   846 000007D2 7D06                    jge .check_right2
   847 000007D4 83F800                  cmp ax, 0
   848 000007D7 7C01                    jl .check_right2
   849 000007D9 41                      inc cx
   850                                  .check_right2:
   851 000007DA 2E803E[1C00]01          cmp byte [cs:RightEnemy2Status], 1
   852 000007E0 750F                    jne .evaluate_space
   853 000007E2 2EA1[1D00]              mov ax, [cs:RightEnemy2Pos]
   854 000007E6 83F803                  cmp ax, ENEMY_SPACE_HORIZONTAL
   855 000007E9 7D06                    jge .evaluate_space
   856 000007EB 83F800                  cmp ax, 0
   857 000007EE 7C01                    jl .evaluate_space
   858 000007F0 41                      inc cx
   859                                  .evaluate_space:
   860 000007F1 83F902                  cmp cx, 2
   861 000007F4 7D04                    jge .space_unavailable
   862 000007F6 B001                    mov al, 1
   863 000007F8 EB02                    jmp .space_check_done
   864                                  .space_unavailable:
   865 000007FA B000                    mov al, 0
   866                                  .space_check_done:
   867 000007FC 59                      pop cx
   868 000007FD 5B                      pop bx
   869 000007FE C3                      ret
   870                                  
   871                                  ;BONUS SYSTEM 
   872                                  spawn_bonus:
   873 000007FF 50                      push ax
   874 00000800 53                      push bx
   875 00000801 51                      push cx
   876                                  
   877 00000802 2E803E[2400]01          cmp byte [cs:BonusStatus], 1
   878 00000808 0F84BB00                je .bonus_done
   879                                  
   880 0000080C 2EA1[2800]              mov ax, [cs:BonusTimer]
   881 00000810 83F800                  cmp ax, 0
   882 00000813 7E08                    jle .try_bonus_spawn
   883 00000815 2EFF0E[2800]            dec word [cs:BonusTimer]
   884 0000081A E9AA00                  jmp .bonus_done
   885                                  
   886                                  .try_bonus_spawn:
   887 0000081D 2EC706[2800]1400        mov word [cs:BonusTimer], bonusDelayt
   888                                  
   889 00000824 B90A00                  mov cx, 10
   890                                  
   891                                  .retry_spawn:
   892 00000827 E831FD                  call get_random_lane
   893                                  
   894 0000082A 80FB00                  cmp bl, 0
   895 0000082D 7407                    je .check_left_lane
   896 0000082F 80FB01                  cmp bl, 1
   897 00000832 742C                    je .check_mid_lane
   898 00000834 EB54                    jmp .check_right_lane
   899                                  
   900                                  .check_left_lane:
   901 00000836 2E803E[0D00]01          cmp byte [cs:LeftEnemy1Status], 1
   902 0000083C 7509                    jne .check_left_enemy2
   903 0000083E 2EA1[0E00]              mov ax, [cs:LeftEnemy1Pos]
   904 00000842 83F80E                  cmp ax, 14
   905 00000845 7C6D                    jl .next_attempt
   906                                  
   907                                  .check_left_enemy2:
   908 00000847 2E803E[1000]01          cmp byte [cs:LeftEnemy2Status], 1
   909 0000084D 7509                    jne .left_safe
   910 0000084F 2EA1[1100]              mov ax, [cs:LeftEnemy2Pos]
   911 00000853 83F80E                  cmp ax, 14
   912 00000856 7C5C                    jl .next_attempt
   913                                  
   914                                  .left_safe:
   915 00000858 2EC606[2500]00          mov byte [cs:BonusLanePos], 0
   916 0000085E EB5A                    jmp .create_bonus
   917                                  
   918                                  .check_mid_lane:
   919 00000860 2E803E[1300]01          cmp byte [cs:MidEnemy1Status], 1
   920 00000866 7509                    jne .check_mid_enemy2
   921 00000868 2EA1[1400]              mov ax, [cs:MidEnemy1Pos]
   922 0000086C 83F80E                  cmp ax, 14
   923 0000086F 7C43                    jl .next_attempt
   924                                  
   925                                  .check_mid_enemy2:
   926 00000871 2E803E[1600]01          cmp byte [cs:MidEnemy2Status], 1
   927 00000877 7509                    jne .mid_safe
   928 00000879 2EA1[1700]              mov ax, [cs:MidEnemy2Pos]
   929 0000087D 83F80E                  cmp ax, 14
   930 00000880 7C32                    jl .next_attempt
   931                                  
   932                                  .mid_safe:
   933 00000882 2EC606[2500]01          mov byte [cs:BonusLanePos], 1
   934 00000888 EB30                    jmp .create_bonus
   935                                  
   936                                  .check_right_lane:
   937 0000088A 2E803E[1900]01          cmp byte [cs:RightEnemy1Status], 1
   938 00000890 7509                    jne .check_right_enemy2
   939 00000892 2EA1[1A00]              mov ax, [cs:RightEnemy1Pos]
   940 00000896 83F80E                  cmp ax, 14
   941 00000899 7C19                    jl .next_attempt
   942                                  
   943                                  .check_right_enemy2:
   944 0000089B 2E803E[1C00]01          cmp byte [cs:RightEnemy2Status], 1
   945 000008A1 7509                    jne .right_safe
   946 000008A3 2EA1[1D00]              mov ax, [cs:RightEnemy2Pos]
   947 000008A7 83F80E                  cmp ax, 14
   948 000008AA 7C08                    jl .next_attempt
   949                                  
   950                                  .right_safe:
   951 000008AC 2EC606[2500]02          mov byte [cs:BonusLanePos], 2
   952 000008B2 EB06                    jmp .create_bonus
   953                                  
   954                                  .next_attempt:
   955 000008B4 49                      dec cx
   956 000008B5 7410                    jz .bonus_done
   957 000008B7 E96DFF                  jmp .retry_spawn
   958                                  
   959                                  .create_bonus:
   960 000008BA 2EC706[2600]FEFF        mov word [cs:BonusPosition], -2
   961 000008C1 2EC606[2400]01          mov byte [cs:BonusStatus], 1
   962                                  
   963                                  .bonus_done:
   964 000008C7 59                      pop cx
   965 000008C8 5B                      pop bx
   966 000008C9 58                      pop ax
   967 000008CA C3                      ret
   968                                  
   969                                  update_bonus:
   970 000008CB 50                      push ax
   971 000008CC 53                      push bx
   972 000008CD 51                      push cx
   973 000008CE 57                      push di
   974 000008CF 2E803E[2400]01          cmp byte [cs:BonusStatus], 1
   975 000008D5 7536                    jne .bonus_update_done
   976                                  
   977 000008D7 E87200                  call remove_bonus
   978 000008DA 2EFF06[2600]            inc word [cs:BonusPosition]
   979 000008DF 2EA1[2600]              mov ax, [cs:BonusPosition]
   980                                  
   981 000008E3 83F819                  cmp ax, 25
   982 000008E6 7D1F                    jge .delete_bonus
   983                                  
   984 000008E8 83F812                  cmp ax, 18
   985 000008EB 7C15                    jl .draw_bonus
   986 000008ED 83F817                  cmp ax, 23
   987 000008F0 7F10                    jg .draw_bonus
   988                                  
   989 000008F2 2EA0[2C00]              mov al, [cs:current_player_lane]
   990 000008F6 2E3A06[2500]            cmp al, [cs:BonusLanePos]
   991 000008FB 7505                    jne .draw_bonus
   992                                  
   993 000008FD E8A700                  call collect_bonus_points
   994 00000900 EB0B                    jmp .bonus_update_done
   995                                  
   996                                  .draw_bonus:
   997 00000902 E80D00                  call draw_bonus_item
   998 00000905 EB06                    jmp .bonus_update_done
   999                                  
  1000                                  .delete_bonus:
  1001 00000907 2EC606[2400]00          mov byte [cs:BonusStatus], 0
  1002                                  
  1003                                  .bonus_update_done:
  1004 0000090D 5F                      pop di
  1005 0000090E 59                      pop cx
  1006 0000090F 5B                      pop bx
  1007 00000910 58                      pop ax
  1008 00000911 C3                      ret
  1009                                  
  1010                                  draw_bonus_item:
  1011 00000912 50                      push ax
  1012 00000913 53                      push bx
  1013 00000914 51                      push cx
  1014 00000915 57                      push di
  1015 00000916 06                      push es
  1016 00000917 B800B8                  mov ax, 0xB800
  1017 0000091A 8EC0                    mov es, ax
  1018 0000091C 2EA1[2600]              mov ax, [cs:BonusPosition]
  1019 00000920 BBA000                  mov bx, 160
  1020 00000923 F7E3                    mul bx
  1021 00000925 89C7                    mov di, ax
  1022 00000927 2EA0[2500]              mov al, [cs:BonusLanePos]
  1023 0000092B 3C00                    cmp al, 0
  1024 0000092D 7409                    je .left_lane
  1025 0000092F 3C01                    cmp al, 1
  1026 00000931 740A                    je .mid_lane
  1027 00000933 83C764                  add di, rightLane + 4
  1028 00000936 EB08                    jmp .draw_icon
  1029                                  .left_lane:
  1030 00000938 83C734                  add di, leftLane + 4
  1031 0000093B EB03                    jmp .draw_icon
  1032                                  .mid_lane:
  1033 0000093D 83C74A                  add di, midLane + 4
  1034                                  .draw_icon:
  1035 00000940 B82476                  mov ax, 0x7624
  1036 00000943 268905                  mov [es:di], ax
  1037 00000946 07                      pop es
  1038 00000947 5F                      pop di
  1039 00000948 59                      pop cx
  1040 00000949 5B                      pop bx
  1041 0000094A 58                      pop ax
  1042 0000094B C3                      ret
  1043                                  
  1044                                  remove_bonus:
  1045 0000094C 50                      push ax
  1046 0000094D 53                      push bx
  1047 0000094E 51                      push cx
  1048 0000094F 57                      push di
  1049 00000950 06                      push es
  1050 00000951 B800B8                  mov ax, 0xB800
  1051 00000954 8EC0                    mov es, ax
  1052 00000956 2EA1[2600]              mov ax, [cs:BonusPosition]
  1053 0000095A BBA000                  mov bx, 160
  1054 0000095D F7E3                    mul bx
  1055 0000095F 89C7                    mov di, ax
  1056 00000961 2EA0[2500]              mov al, [cs:BonusLanePos]
  1057 00000965 3C00                    cmp al, 0
  1058 00000967 7409                    je .clear_left
  1059 00000969 3C01                    cmp al, 1
  1060 0000096B 740A                    je .clear_mid
  1061 0000096D 83C764                  add di, rightLane + 4
  1062 00000970 EB08                    jmp .clear_position
  1063                                  .clear_left:
  1064 00000972 83C734                  add di, leftLane + 4
  1065 00000975 EB03                    jmp .clear_position
  1066                                  .clear_mid:
  1067 00000977 83C74A                  add di, midLane + 4
  1068                                  .clear_position:
  1069 0000097A B82077                  mov ax, 0x7720
  1070 0000097D 268905                  mov [es:di], ax
  1071 00000980 07                      pop es
  1072 00000981 5F                      pop di
  1073 00000982 59                      pop cx
  1074 00000983 5B                      pop bx
  1075 00000984 58                      pop ax
  1076 00000985 C3                      ret
  1077                                  
  1078                                  check_bonus_collision:
  1079 00000986 50                      push ax
  1080 00000987 53                      push bx
  1081 00000988 2EA0[2C00]              mov al, [cs:current_player_lane]
  1082 0000098C 2E3A06[2500]            cmp al, [cs:BonusLanePos]
  1083 00000991 7511                    jne .no_collision
  1084 00000993 2EA1[2600]              mov ax, [cs:BonusPosition]
  1085 00000997 83F814                  cmp ax, 20
  1086 0000099A 7C08                    jl .no_collision
  1087 0000099C 83F819                  cmp ax, 25
  1088 0000099F 7F03                    jg .no_collision
  1089 000009A1 E80300                  call collect_bonus_points
  1090                                  .no_collision:
  1091 000009A4 5B                      pop bx
  1092 000009A5 58                      pop ax
  1093 000009A6 C3                      ret
  1094                                  
  1095                                  collect_bonus_points:
  1096 000009A7 50                      push ax
  1097 000009A8 2EA1[0500]              mov ax, [cs:player_score]
  1098 000009AC 83C032                  add ax, BONUS_POINTS
  1099 000009AF 2EA3[0500]              mov [cs:player_score], ax
  1100                                  
  1101 000009B3 2EC606[2400]00          mov byte [cs:BonusStatus], 0
  1102 000009B9 2EC606[0400]01          mov byte [cs:bonus_flag], 1
  1103                                  
  1104 000009BF E8B504                  call update_score_display
  1105 000009C2 58                      pop ax
  1106 000009C3 C3                      ret
  1107                                   
  1108                                  update_enemies:
  1109 000009C4 50                      push ax
  1110 000009C5 53                      push bx
  1111 000009C6 51                      push cx
  1112 000009C7 E83901                  call clear_all_enemies
  1113 000009CA 2E803E[0D00]01          cmp byte [cs:LeftEnemy1Status], 1
  1114 000009D0 7521                    jne .skip_left1
  1115 000009D2 2EFF06[0E00]            inc word [cs:LeftEnemy1Pos]
  1116 000009D7 2EA1[0E00]              mov ax, [cs:LeftEnemy1Pos]
  1117 000009DB 83F819                  cmp ax, 25
  1118 000009DE 7D0A                    jge .remove_left1
  1119 000009E0 BB3000                  mov bx, leftLane
  1120 000009E3 89C1                    mov cx, ax
  1121 000009E5 E8E200                  call draw_enemy_car
  1122 000009E8 EB09                    jmp .skip_left1
  1123                                  .remove_left1:
  1124 000009EA 2EC606[0D00]00          mov byte [cs:LeftEnemy1Status], 0
  1125 000009F0 E8AE02                  call add_score
  1126                                  .skip_left1:
  1127 000009F3 2E803E[1000]01          cmp byte [cs:LeftEnemy2Status], 1
  1128 000009F9 7521                    jne .skip_left2
  1129 000009FB 2EFF06[1100]            inc word [cs:LeftEnemy2Pos]
  1130 00000A00 2EA1[1100]              mov ax, [cs:LeftEnemy2Pos]
  1131 00000A04 83F819                  cmp ax, 25
  1132 00000A07 7D0A                    jge .remove_left2
  1133 00000A09 BB3000                  mov bx, leftLane
  1134 00000A0C 89C1                    mov cx, ax
  1135 00000A0E E8B900                  call draw_enemy_car
  1136 00000A11 EB09                    jmp .skip_left2
  1137                                  .remove_left2:
  1138 00000A13 2EC606[1000]00          mov byte [cs:LeftEnemy2Status], 0
  1139 00000A19 E88502                  call add_score
  1140                                  .skip_left2:
  1141 00000A1C 2E803E[1300]01          cmp byte [cs:MidEnemy1Status], 1
  1142 00000A22 7521                    jne .skip_mid1
  1143 00000A24 2EFF06[1400]            inc word [cs:MidEnemy1Pos]
  1144 00000A29 2EA1[1400]              mov ax, [cs:MidEnemy1Pos]
  1145 00000A2D 83F819                  cmp ax, 25
  1146 00000A30 7D0A                    jge .remove_mid1
  1147 00000A32 BB4600                  mov bx, midLane
  1148 00000A35 89C1                    mov cx, ax
  1149 00000A37 E89000                  call draw_enemy_car
  1150 00000A3A EB09                    jmp .skip_mid1
  1151                                  .remove_mid1:
  1152 00000A3C 2EC606[1300]00          mov byte [cs:MidEnemy1Status], 0
  1153 00000A42 E85C02                  call add_score
  1154                                  .skip_mid1:
  1155 00000A45 2E803E[1600]01          cmp byte [cs:MidEnemy2Status], 1
  1156 00000A4B 7521                    jne .skip_mid2
  1157 00000A4D 2EFF06[1700]            inc word [cs:MidEnemy2Pos]
  1158 00000A52 2EA1[1700]              mov ax, [cs:MidEnemy2Pos]
  1159 00000A56 83F819                  cmp ax, 25
  1160 00000A59 7D0A                    jge .remove_mid2
  1161 00000A5B BB4600                  mov bx, midLane
  1162 00000A5E 89C1                    mov cx, ax
  1163 00000A60 E86700                  call draw_enemy_car
  1164 00000A63 EB09                    jmp .skip_mid2
  1165                                  .remove_mid2:
  1166 00000A65 2EC606[1600]00          mov byte [cs:MidEnemy2Status], 0
  1167 00000A6B E83302                  call add_score
  1168                                  .skip_mid2:
  1169 00000A6E 2E803E[1900]01          cmp byte [cs:RightEnemy1Status], 1
  1170 00000A74 7521                    jne .skip_right1
  1171 00000A76 2EFF06[1A00]            inc word [cs:RightEnemy1Pos]
  1172 00000A7B 2EA1[1A00]              mov ax, [cs:RightEnemy1Pos]
  1173 00000A7F 83F819                  cmp ax, 25
  1174 00000A82 7D0A                    jge .remove_right1
  1175 00000A84 BB6000                  mov bx, rightLane
  1176 00000A87 89C1                    mov cx, ax
  1177 00000A89 E83E00                  call draw_enemy_car
  1178 00000A8C EB09                    jmp .skip_right1
  1179                                  .remove_right1:
  1180 00000A8E 2EC606[1900]00          mov byte [cs:RightEnemy1Status], 0
  1181 00000A94 E80A02                  call add_score
  1182                                  .skip_right1:
  1183 00000A97 2E803E[1C00]01          cmp byte [cs:RightEnemy2Status], 1
  1184 00000A9D 7521                    jne .skip_right2
  1185 00000A9F 2EFF06[1D00]            inc word [cs:RightEnemy2Pos]
  1186 00000AA4 2EA1[1D00]              mov ax, [cs:RightEnemy2Pos]
  1187 00000AA8 83F819                  cmp ax, 25
  1188 00000AAB 7D0A                    jge .remove_right2
  1189 00000AAD BB6000                  mov bx, rightLane
  1190 00000AB0 89C1                    mov cx, ax
  1191 00000AB2 E81500                  call draw_enemy_car
  1192 00000AB5 EB09                    jmp .skip_right2
  1193                                  .remove_right2:
  1194 00000AB7 2EC606[1C00]00          mov byte [cs:RightEnemy2Status], 0
  1195 00000ABD E8E101                  call add_score
  1196                                  .skip_right2:
  1197 00000AC0 E83CFD                  call spawn_bonus
  1198 00000AC3 E805FE                  call update_bonus
  1199 00000AC6 59                      pop cx
  1200 00000AC7 5B                      pop bx
  1201 00000AC8 58                      pop ax
  1202 00000AC9 C3                      ret
  1203                                  
  1204                                  draw_enemy_car:
  1205 00000ACA 50                      push ax
  1206 00000ACB 53                      push bx
  1207 00000ACC 51                      push cx
  1208 00000ACD 52                      push dx
  1209 00000ACE 57                      push di
  1210 00000ACF 89C8                    mov ax, cx
  1211 00000AD1 BAA000                  mov dx, 160
  1212 00000AD4 F7E2                    mul dx
  1213 00000AD6 01D8                    add ax, bx
  1214 00000AD8 89C7                    mov di, ax
  1215 00000ADA 83FB30                  cmp bx, leftLane
  1216 00000ADD 740E                    je .red_car
  1217 00000ADF 83FB46                  cmp bx, midLane
  1218 00000AE2 7412                    je .blue_car
  1219 00000AE4 57                      push di
  1220 00000AE5 68205C                  push 0x5C20
  1221 00000AE8 E84906                  call drawCar
  1222 00000AEB EB10                    jmp .draw_done
  1223                                  .red_car:
  1224 00000AED 57                      push di
  1225 00000AEE 68204C                  push 0x4C20
  1226 00000AF1 E84006                  call drawCar
  1227 00000AF4 EB07                    jmp .draw_done
  1228                                  .blue_car:
  1229 00000AF6 57                      push di
  1230 00000AF7 68201C                  push 0x1C20
  1231 00000AFA E83706                  call drawCar
  1232                                  .draw_done:
  1233 00000AFD 5F                      pop di
  1234 00000AFE 5A                      pop dx
  1235 00000AFF 59                      pop cx
  1236 00000B00 5B                      pop bx
  1237 00000B01 58                      pop ax
  1238 00000B02 C3                      ret
  1239                                  
  1240                                  clear_all_enemies:
  1241 00000B03 50                      push ax
  1242 00000B04 53                      push bx
  1243 00000B05 51                      push cx
  1244 00000B06 52                      push dx
  1245 00000B07 57                      push di
  1246 00000B08 2E803E[0D00]01          cmp byte [cs:LeftEnemy1Status], 1
  1247 00000B0E 7516                    jne .skip_left1
  1248 00000B10 2EA1[0E00]              mov ax, [cs:LeftEnemy1Pos]
  1249 00000B14 83F800                  cmp ax, 0
  1250 00000B17 7C0D                    jl .skip_left1
  1251 00000B19 83F818                  cmp ax, 24
  1252 00000B1C 7F08                    jg .skip_left1
  1253 00000B1E BB3000                  mov bx, leftLane
  1254 00000B21 89C1                    mov cx, ax
  1255 00000B23 E89C00                  call clear_car_position
  1256                                  .skip_left1:
  1257 00000B26 2E803E[1000]01          cmp byte [cs:LeftEnemy2Status], 1
  1258 00000B2C 7516                    jne .skip_left2
  1259 00000B2E 2EA1[1100]              mov ax, [cs:LeftEnemy2Pos]
  1260 00000B32 83F800                  cmp ax, 0
  1261 00000B35 7C0D                    jl .skip_left2
  1262 00000B37 83F818                  cmp ax, 24
  1263 00000B3A 7F08                    jg .skip_left2
  1264 00000B3C BB3000                  mov bx, leftLane
  1265 00000B3F 89C1                    mov cx, ax
  1266 00000B41 E87E00                  call clear_car_position
  1267                                  .skip_left2:
  1268 00000B44 2E803E[1300]01          cmp byte [cs:MidEnemy1Status], 1
  1269 00000B4A 7516                    jne .skip_mid1
  1270 00000B4C 2EA1[1400]              mov ax, [cs:MidEnemy1Pos]
  1271 00000B50 83F800                  cmp ax, 0
  1272 00000B53 7C0D                    jl .skip_mid1
  1273 00000B55 83F818                  cmp ax, 24
  1274 00000B58 7F08                    jg .skip_mid1
  1275 00000B5A BB4600                  mov bx, midLane
  1276 00000B5D 89C1                    mov cx, ax
  1277 00000B5F E86000                  call clear_car_position
  1278                                  .skip_mid1:
  1279 00000B62 2E803E[1600]01          cmp byte [cs:MidEnemy2Status], 1
  1280 00000B68 7516                    jne .skip_mid2
  1281 00000B6A 2EA1[1700]              mov ax, [cs:MidEnemy2Pos]
  1282 00000B6E 83F800                  cmp ax, 0
  1283 00000B71 7C0D                    jl .skip_mid2
  1284 00000B73 83F818                  cmp ax, 24
  1285 00000B76 7F08                    jg .skip_mid2
  1286 00000B78 BB4600                  mov bx, midLane
  1287 00000B7B 89C1                    mov cx, ax
  1288 00000B7D E84200                  call clear_car_position
  1289                                  .skip_mid2:
  1290 00000B80 2E803E[1900]01          cmp byte [cs:RightEnemy1Status], 1
  1291 00000B86 7516                    jne .skip_right1
  1292 00000B88 2EA1[1A00]              mov ax, [cs:RightEnemy1Pos]
  1293 00000B8C 83F800                  cmp ax, 0
  1294 00000B8F 7C0D                    jl .skip_right1
  1295 00000B91 83F818                  cmp ax, 24
  1296 00000B94 7F08                    jg .skip_right1
  1297 00000B96 BB6000                  mov bx, rightLane
  1298 00000B99 89C1                    mov cx, ax
  1299 00000B9B E82400                  call clear_car_position
  1300                                  .skip_right1:
  1301 00000B9E 2E803E[1C00]01          cmp byte [cs:RightEnemy2Status], 1
  1302 00000BA4 7516                    jne .clear_done
  1303 00000BA6 2EA1[1D00]              mov ax, [cs:RightEnemy2Pos]
  1304 00000BAA 83F800                  cmp ax, 0
  1305 00000BAD 7C0D                    jl .clear_done
  1306 00000BAF 83F818                  cmp ax, 24
  1307 00000BB2 7F08                    jg .clear_done
  1308 00000BB4 BB6000                  mov bx, rightLane
  1309 00000BB7 89C1                    mov cx, ax
  1310 00000BB9 E80600                  call clear_car_position
  1311                                  .clear_done:
  1312 00000BBC 5F                      pop di
  1313 00000BBD 5A                      pop dx
  1314 00000BBE 59                      pop cx
  1315 00000BBF 5B                      pop bx
  1316 00000BC0 58                      pop ax
  1317 00000BC1 C3                      ret
  1318                                  
  1319                                  clear_car_position:
  1320 00000BC2 50                      push ax
  1321 00000BC3 53                      push bx
  1322 00000BC4 51                      push cx
  1323 00000BC5 52                      push dx
  1324 00000BC6 57                      push di
  1325 00000BC7 56                      push si
  1326 00000BC8 89CA                    mov dx, cx
  1327 00000BCA 89D0                    mov ax, dx
  1328 00000BCC B9A000                  mov cx, 160
  1329 00000BCF F7E1                    mul cx
  1330 00000BD1 01D8                    add ax, bx
  1331 00000BD3 89C7                    mov di, ax
  1332 00000BD5 B82077                  mov ax, 0x7720
  1333 00000BD8 57                      push di
  1334 00000BD9 67810424C003            add word [esp], 960
  1335 00000BDF 6A07                    push 7
  1336 00000BE1 50                      push ax
  1337 00000BE2 E83205                  call draw
  1338 00000BE5 57                      push di
  1339 00000BE6 678104242403            add word [esp], 804
  1340 00000BEC 6A03                    push 3
  1341 00000BEE 50                      push ax
  1342 00000BEF E82505                  call draw
  1343 00000BF2 89FE                    mov si, di
  1344 00000BF4 81C62A03                add si, 810
  1345 00000BF8 26C7042077              mov word [es:si], 0x7720
  1346 00000BFD 89FE                    mov si, di
  1347 00000BFF 81C62203                add si, 802
  1348 00000C03 26C7042077              mov word [es:si], 0x7720
  1349 00000C08 57                      push di
  1350 00000C09 678104242003            add word [esp], 800
  1351 00000C0F 6A01                    push 1
  1352 00000C11 50                      push ax
  1353 00000C12 E80205                  call draw
  1354 00000C15 57                      push di
  1355 00000C16 678104242C03            add word [esp], 812
  1356 00000C1C 6A01                    push 1
  1357 00000C1E 50                      push ax
  1358 00000C1F E8F504                  call draw
  1359 00000C22 57                      push di
  1360 00000C23 678104248202            add word [esp], 642
  1361 00000C29 6A05                    push 5
  1362 00000C2B 50                      push ax
  1363 00000C2C E8E804                  call draw
  1364 00000C2F 57                      push di
  1365 00000C30 67810424E201            add word [esp], 482
  1366 00000C36 6A05                    push 5
  1367 00000C38 50                      push ax
  1368 00000C39 E8DB04                  call draw
  1369 00000C3C 57                      push di
  1370 00000C3D 67810424E601            add word [esp], 486
  1371 00000C43 6A01                    push 1
  1372 00000C45 50                      push ax
  1373 00000C46 E8CE04                  call draw
  1374 00000C49 57                      push di
  1375 00000C4A 678104244201            add word [esp], 322
  1376 00000C50 6A05                    push 5
  1377 00000C52 50                      push ax
  1378 00000C53 E8C104                  call draw
  1379 00000C56 57                      push di
  1380 00000C57 67810424A400            add word [esp], 164
  1381 00000C5D 6A03                    push 3
  1382 00000C5F 50                      push ax
  1383 00000C60 E8B404                  call draw
  1384 00000C63 89FE                    mov si, di
  1385 00000C65 81C6AA00                add si, 170
  1386 00000C69 26C7042077              mov word [es:si], 0x7720
  1387 00000C6E 89FE                    mov si, di
  1388 00000C70 81C6A200                add si, 162
  1389 00000C74 26C7042077              mov word [es:si], 0x7720
  1390 00000C79 57                      push di
  1391 00000C7A 67810424A000            add word [esp], 160
  1392 00000C80 6A01                    push 1
  1393 00000C82 50                      push ax
  1394 00000C83 E89104                  call draw
  1395 00000C86 57                      push di
  1396 00000C87 67810424AC00            add word [esp], 172
  1397 00000C8D 6A01                    push 1
  1398 00000C8F 50                      push ax
  1399 00000C90 E88404                  call draw
  1400 00000C93 57                      push di
  1401 00000C94 6A07                    push 7
  1402 00000C96 50                      push ax
  1403 00000C97 E87D04                  call draw
  1404 00000C9A 5E                      pop si
  1405 00000C9B 5F                      pop di
  1406 00000C9C 5A                      pop dx
  1407 00000C9D 59                      pop cx
  1408 00000C9E 5B                      pop bx
  1409 00000C9F 58                      pop ax
  1410 00000CA0 C3                      ret
  1411                                  
  1412                                  add_score:
  1413 00000CA1 50                      push ax
  1414 00000CA2 2EA1[0500]              mov ax, [cs:player_score]
  1415 00000CA6 40                      inc ax
  1416 00000CA7 2EA3[0500]              mov [cs:player_score], ax
  1417 00000CAB E8C901                  call update_score_display
  1418 00000CAE 58                      pop ax
  1419 00000CAF C3                      ret
  1420                                  
  1421                                  ;HANDLING COLLISION 
  1422                                  check_collisions:
  1423 00000CB0 50                      push ax
  1424 00000CB1 53                      push bx
  1425 00000CB2 51                      push cx
  1426 00000CB3 52                      push dx
  1427 00000CB4 B91800                  mov cx, 24
  1428 00000CB7 2E803E[2C00]00          cmp byte [cs:current_player_lane], 0
  1429 00000CBD 752A                    jne .check_mid
  1430 00000CBF 2E803E[0D00]01          cmp byte [cs:LeftEnemy1Status], 1
  1431 00000CC5 750C                    jne .check_left2
  1432 00000CC7 2EA1[0E00]              mov ax, [cs:LeftEnemy1Pos]
  1433 00000CCB E88200                  call check_car_overlap
  1434 00000CCE 83F801                  cmp ax, 1
  1435 00000CD1 7472                    je .collision_detected
  1436                                  .check_left2:
  1437 00000CD3 2E803E[1000]01          cmp byte [cs:LeftEnemy2Status], 1
  1438 00000CD9 7570                    jne .no_collision
  1439 00000CDB 2EA1[1100]              mov ax, [cs:LeftEnemy2Pos]
  1440 00000CDF E86E00                  call check_car_overlap
  1441 00000CE2 83F801                  cmp ax, 1
  1442 00000CE5 745E                    je .collision_detected
  1443 00000CE7 EB62                    jmp .no_collision
  1444                                  .check_mid:
  1445 00000CE9 2E803E[2C00]01          cmp byte [cs:current_player_lane], 1
  1446 00000CEF 752A                    jne .check_right
  1447 00000CF1 2E803E[1300]01          cmp byte [cs:MidEnemy1Status], 1
  1448 00000CF7 750C                    jne .check_mid2
  1449 00000CF9 2EA1[1400]              mov ax, [cs:MidEnemy1Pos]
  1450 00000CFD E85000                  call check_car_overlap
  1451 00000D00 83F801                  cmp ax, 1
  1452 00000D03 7440                    je .collision_detected
  1453                                  .check_mid2:
  1454 00000D05 2E803E[1600]01          cmp byte [cs:MidEnemy2Status], 1
  1455 00000D0B 753E                    jne .no_collision
  1456 00000D0D 2EA1[1700]              mov ax, [cs:MidEnemy2Pos]
  1457 00000D11 E83C00                  call check_car_overlap
  1458 00000D14 83F801                  cmp ax, 1
  1459 00000D17 742C                    je .collision_detected
  1460 00000D19 EB30                    jmp .no_collision
  1461                                  .check_right:
  1462 00000D1B 2E803E[1900]01          cmp byte [cs:RightEnemy1Status], 1
  1463 00000D21 750C                    jne .check_right2
  1464 00000D23 2EA1[1A00]              mov ax, [cs:RightEnemy1Pos]
  1465 00000D27 E82600                  call check_car_overlap
  1466 00000D2A 83F801                  cmp ax, 1
  1467 00000D2D 7416                    je .collision_detected
  1468                                  .check_right2:
  1469 00000D2F 2E803E[1C00]01          cmp byte [cs:RightEnemy2Status], 1
  1470 00000D35 7514                    jne .no_collision
  1471 00000D37 2EA1[1D00]              mov ax, [cs:RightEnemy2Pos]
  1472 00000D3B E81200                  call check_car_overlap
  1473 00000D3E 83F801                  cmp ax, 1
  1474 00000D41 7402                    je .collision_detected
  1475 00000D43 EB06                    jmp .no_collision
  1476                                  .collision_detected:
  1477 00000D45 2EC606[0300]01          mov byte [cs:game_over_flag], 1
  1478                                  .no_collision:
  1479 00000D4B 5A                      pop dx
  1480 00000D4C 59                      pop cx
  1481 00000D4D 5B                      pop bx
  1482 00000D4E 58                      pop ax
  1483 00000D4F C3                      ret
  1484                                  
  1485                                  check_car_overlap:
  1486 00000D50 53                      push bx
  1487 00000D51 51                      push cx
  1488 00000D52 89C3                    mov bx, ax
  1489 00000D54 89D8                    mov ax, bx
  1490 00000D56 83C007                  add ax, 7
  1491 00000D59 83F813                  cmp ax, 19
  1492 00000D5C 7C0A                    jl .no_overlap
  1493 00000D5E 83FB18                  cmp bx, 24
  1494 00000D61 7F05                    jg .no_overlap
  1495 00000D63 B80100                  mov ax, 1
  1496 00000D66 EB03                    jmp .overlap_done
  1497                                  .no_overlap:
  1498 00000D68 B80000                  mov ax, 0
  1499                                  .overlap_done:
  1500 00000D6B 59                      pop cx
  1501 00000D6C 5B                      pop bx
  1502 00000D6D C3                      ret
  1503                                  
  1504                                  ;MAIN GAME LOOP 
  1505                                  scrolldown_cyclic:
  1506 00000D6E 55                      push bp
  1507 00000D6F 89E5                    mov bp, sp
  1508 00000D71 50                      push ax
  1509 00000D72 53                      push bx
  1510 00000D73 51                      push cx
  1511 00000D74 56                      push si
  1512 00000D75 57                      push di
  1513 00000D76 1E                      push ds
  1514 00000D77 06                      push es
  1515 00000D78 8CC8                    mov ax, cs
  1516 00000D7A 8ED8                    mov ds, ax
  1517                                  
  1518                                  game_cycle:
  1519 00000D7C 803E[0300]01            cmp byte [game_over_flag], 1
  1520 00000D81 0F84E700                je exit_game
  1521 00000D85 803E[0C00]01            cmp byte [game_paused], 1
  1522 00000D8A 740C                    je .check_scrolling
  1523 00000D8C 803E[0700]01            cmp byte [scroll_active], 1
  1524 00000D91 75E9                    jne game_cycle
  1525 00000D93 C606[0700]00            mov byte [scroll_active], 0
  1526                                  
  1527                                  .check_scrolling:
  1528 00000D98 803E[0C00]01            cmp byte [game_paused], 1
  1529 00000D9D 74DD                    je game_cycle
  1530                                  
  1531 00000D9F E821F4                  call wait_vsync
  1532                                  
  1533 00000DA2 E86402                  call clear_player_car
  1534 00000DA5 E85BFD                  call clear_all_enemies
  1535 00000DA8 B800B8                  mov ax, 0B800h
  1536 00000DAB 8ED8                    mov ds, ax
  1537 00000DAD 8EC0                    mov es, ax
  1538 00000DAF B80090                  mov ax, 9000h
  1539 00000DB2 8EC0                    mov es, ax
  1540 00000DB4 B800B8                  mov ax, 0B800h
  1541 00000DB7 8ED8                    mov ds, ax
  1542 00000DB9 B98007                  mov cx, 1920
  1543 00000DBC BEA000                  mov si, 160
  1544 00000DBF 31FF                    xor di, di
  1545 00000DC1 FC                      cld
  1546 00000DC2 F3A5                    rep movsw
  1547 00000DC4 B800B8                  mov ax, 0B800h
  1548 00000DC7 8EC0                    mov es, ax
  1549 00000DC9 B80090                  mov ax, 9000h
  1550 00000DCC 8ED8                    mov ds, ax
  1551 00000DCE BE600E                  mov si, 3680
  1552 00000DD1 BFA000                  mov di, 160
  1553 00000DD4 B95000                  mov cx, 80
  1554 00000DD7 FC                      cld
  1555 00000DD8 F3A5                    rep movsw
  1556 00000DDA 31F6                    xor si, si
  1557 00000DDC BF4001                  mov di, 320
  1558 00000DDF B93007                  mov cx, 1840
  1559 00000DE2 FC                      cld
  1560 00000DE3 F3A5                    rep movsw
  1561 00000DE5 E8D0F7                  call spawn_enemies
  1562 00000DE8 E8D9FB                  call update_enemies
  1563 00000DEB E8C2FE                  call check_collisions
  1564 00000DEE B800B8                  mov ax, 0B800h
  1565 00000DF1 8EC0                    mov es, ax
  1566                                  
  1567 00000DF3 BF2800                  mov di, 20*2
  1568 00000DF6 B82077                  mov ax, 0x7720
  1569 00000DF9 B92600                  mov cx, 38
  1570 00000DFC F3AB                    rep stosw
  1571                                  
  1572 00000DFE BF2600                  mov di, (20-1)*2
  1573 00000E01 26C705DB00              mov word [es:di], 0x00DB
  1574 00000E06 BF2800                  mov di, 20*2
  1575 00000E09 26C705DB7E              mov word [es:di], 0x7EDB
  1576 00000E0E BF2A00                  mov di, (20+1)*2
  1577 00000E11 26C705DB00              mov word [es:di], 0x00DB
  1578                                  
  1579 00000E16 BF7200                  mov di, (58-1)*2
  1580 00000E19 26C705DB00              mov word [es:di], 0x00DB
  1581 00000E1E BF7400                  mov di, 58*2
  1582 00000E21 26C705DB7E              mov word [es:di], 0x7EDB
  1583 00000E26 BF7600                  mov di, (58+1)*2
  1584 00000E29 26C705DB00              mov word [es:di], 0x00DB
  1585 00000E2E 6A20                    push 32
  1586 00000E30 687C7F                  push 0x7F7C
  1587 00000E33 E8AC04                  call draw_road_marker
  1588 00000E36 6A2D                    push 45
  1589 00000E38 687C7F                  push 0x7F7C
  1590 00000E3B E8A404                  call draw_road_marker
  1591 00000E3E 8CC8                    mov ax, cs
  1592 00000E40 8ED8                    mov ds, ax
  1593 00000E42 803E[0300]01            cmp byte [game_over_flag], 1
  1594 00000E47 7405                    je skip_score_update
  1595 00000E49 8306[0500]01            add word [player_score], 1
  1596                                  skip_score_update:
  1597 00000E4E 8CC8                    mov ax, cs
  1598 00000E50 8ED8                    mov ds, ax
  1599 00000E52 803E[0300]01            cmp byte [game_over_flag], 1
  1600 00000E57 7413                    je exit_game
  1601 00000E59 E8AD01                  call clear_player_car
  1602 00000E5C FF36[2A00]              push word [player_location]
  1603 00000E60 682045                  push 0x4520
  1604 00000E63 E8CE02                  call drawCar
  1605 00000E66 E80E00                  call update_score_display
  1606 00000E69 E910FF                  jmp game_cycle
  1607                                  
  1608                                  exit_game:
  1609 00000E6C 07                      pop es
  1610 00000E6D 1F                      pop ds
  1611 00000E6E 5F                      pop di
  1612 00000E6F 5E                      pop si
  1613 00000E70 59                      pop cx
  1614 00000E71 5B                      pop bx
  1615 00000E72 58                      pop ax
  1616 00000E73 5D                      pop bp
  1617 00000E74 C20200                  ret 2
  1618                                  
  1619                                  ;SCOREEEE 
  1620                                  update_score_display:
  1621 00000E77 50                      push ax
  1622 00000E78 53                      push bx
  1623 00000E79 51                      push cx
  1624 00000E7A 52                      push dx
  1625 00000E7B 56                      push si
  1626 00000E7C 57                      push di
  1627 00000E7D 06                      push es
  1628 00000E7E 1E                      push ds
  1629 00000E7F B800B8                  mov ax, 0B800h
  1630 00000E82 8EC0                    mov es, ax
  1631 00000E84 BF0000                  mov di, 0
  1632 00000E87 B82020                  mov ax, 0x2020
  1633 00000E8A B91300                  mov cx, 19
  1634 00000E8D F3AB                    rep stosw
  1635 00000E8F BF0000                  mov di, 0
  1636 00000E92 26C705532F              mov word [es:di], 0x2F53
  1637 00000E97 83C702                  add di, 2
  1638 00000E9A 26C705432F              mov word [es:di], 0x2F43
  1639 00000E9F 83C702                  add di, 2
  1640 00000EA2 26C7054F2F              mov word [es:di], 0x2F4F
  1641 00000EA7 83C702                  add di, 2
  1642 00000EAA 26C705522F              mov word [es:di], 0x2F52
  1643 00000EAF 83C702                  add di, 2
  1644 00000EB2 26C705452F              mov word [es:di], 0x2F45
  1645 00000EB7 83C702                  add di, 2
  1646 00000EBA 26C7053A2F              mov word [es:di], 0x2F3A
  1647 00000EBF 83C702                  add di, 2
  1648 00000EC2 26C705202F              mov word [es:di], 0x2F20
  1649 00000EC7 83C702                  add di, 2
  1650 00000ECA 0E                      push cs
  1651 00000ECB 1F                      pop ds
  1652 00000ECC A1[0500]                mov ax, [player_score]
  1653 00000ECF 31C9                    xor cx, cx
  1654 00000ED1 83F800                  cmp ax, 0
  1655 00000ED4 750A                    jne score_not_zero
  1656 00000ED6 26C705302F              mov word [es:di], 0x2F30
  1657 00000EDB 83C702                  add di, 2
  1658 00000EDE EB1E                    jmp score_display_done
  1659                                  score_not_zero:
  1660 00000EE0 BB0A00                  mov bx, 10
  1661                                  score_convert:
  1662 00000EE3 31D2                    xor dx, dx
  1663 00000EE5 F7F3                    div bx
  1664 00000EE7 80C230                  add dl, '0'
  1665 00000EEA 52                      push dx
  1666 00000EEB 41                      inc cx
  1667 00000EEC 83F800                  cmp ax, 0
  1668 00000EEF 75F2                    jne score_convert
  1669                                  score_display:
  1670 00000EF1 5A                      pop dx
  1671 00000EF2 88D0                    mov al, dl
  1672 00000EF4 B42F                    mov ah, 0x2F
  1673 00000EF6 268905                  mov word [es:di], ax
  1674 00000EF9 83C702                  add di, 2
  1675 00000EFC E2F3                    loop score_display
  1676                                  score_display_done:
  1677 00000EFE 1F                      pop ds
  1678 00000EFF 07                      pop es
  1679 00000F00 5F                      pop di
  1680 00000F01 5E                      pop si
  1681 00000F02 5A                      pop dx
  1682 00000F03 59                      pop cx
  1683 00000F04 5B                      pop bx
  1684 00000F05 58                      pop ax
  1685 00000F06 C3                      ret
  1686                                  
  1687                                  ;GAME OVER SCREEN 
  1688                                  show_game_over:
  1689 00000F07 50                      push ax
  1690 00000F08 53                      push bx
  1691 00000F09 51                      push cx
  1692 00000F0A 57                      push di
  1693 00000F0B 06                      push es
  1694 00000F0C 1E                      push ds
  1695 00000F0D B800B8                  mov ax, 0B800h
  1696 00000F10 8EC0                    mov es, ax
  1697 00000F12 BF0000                  mov di, 0
  1698 00000F15 B82047                  mov ax, 0x4720
  1699 00000F18 B9D007                  mov cx, 2000
  1700 00000F1B F3AB                    rep stosw
  1701 00000F1D BF2007                  mov di, 1824
  1702 00000F20 26C705474F              mov word [es:di], 0x4F47
  1703 00000F25 83C702                  add di, 2
  1704 00000F28 26C705414F              mov word [es:di], 0x4F41
  1705 00000F2D 83C702                  add di, 2
  1706 00000F30 26C7054D4F              mov word [es:di], 0x4F4D
  1707 00000F35 83C702                  add di, 2
  1708 00000F38 26C705454F              mov word [es:di], 0x4F45
  1709 00000F3D 83C702                  add di, 2
  1710 00000F40 26C705204F              mov word [es:di], 0x4F20
  1711 00000F45 83C702                  add di, 2
  1712 00000F48 26C7054F4F              mov word [es:di], 0x4F4F
  1713 00000F4D 83C702                  add di, 2
  1714 00000F50 26C705564F              mov word [es:di], 0x4F56
  1715 00000F55 83C702                  add di, 2
  1716 00000F58 26C705454F              mov word [es:di], 0x4F45
  1717 00000F5D 83C702                  add di, 2
  1718 00000F60 26C705524F              mov word [es:di], 0x4F52
  1719 00000F65 BFC007                  mov di, 1984
  1720 00000F68 26C705464F              mov word [es:di], 0x4F46
  1721 00000F6D 83C702                  add di, 2
  1722 00000F70 26C705494F              mov word [es:di], 0x4F49
  1723 00000F75 83C702                  add di, 2
  1724 00000F78 26C7054E4F              mov word [es:di], 0x4F4E
  1725 00000F7D 83C702                  add di, 2
  1726 00000F80 26C705414F              mov word [es:di], 0x4F41
  1727 00000F85 83C702                  add di, 2
  1728 00000F88 26C7054C4F              mov word [es:di], 0x4F4C
  1729 00000F8D 83C702                  add di, 2
  1730 00000F90 26C705204F              mov word [es:di], 0x4F20
  1731 00000F95 83C702                  add di, 2
  1732 00000F98 26C705534F              mov word [es:di], 0x4F53
  1733 00000F9D 83C702                  add di, 2
  1734 00000FA0 26C705434F              mov word [es:di], 0x4F43
  1735 00000FA5 83C702                  add di, 2
  1736 00000FA8 26C7054F4F              mov word [es:di], 0x4F4F
  1737 00000FAD 83C702                  add di, 2
  1738 00000FB0 26C705524F              mov word [es:di], 0x4F52
  1739 00000FB5 83C702                  add di, 2
  1740 00000FB8 26C705454F              mov word [es:di], 0x4F45
  1741 00000FBD 83C702                  add di, 2
  1742 00000FC0 26C7053A4F              mov word [es:di], 0x4F3A
  1743 00000FC5 83C702                  add di, 2
  1744 00000FC8 26C705204F              mov word [es:di], 0x4F20
  1745 00000FCD 0E                      push cs
  1746 00000FCE 1F                      pop ds
  1747 00000FCF A1[0500]                mov ax, [player_score]
  1748 00000FD2 31C9                    xor cx, cx
  1749 00000FD4 83F800                  cmp ax, 0
  1750 00000FD7 7507                    jne game_over_not_zero
  1751 00000FD9 26C705304F              mov word [es:di], 0x4F30
  1752 00000FDE EB1E                    jmp game_over_wait
  1753                                  game_over_not_zero:
  1754 00000FE0 BB0A00                  mov bx, 10
  1755                                  game_over_convert:
  1756 00000FE3 31D2                    xor dx, dx
  1757 00000FE5 F7F3                    div bx
  1758 00000FE7 80C230                  add dl, '0'
  1759 00000FEA 52                      push dx
  1760 00000FEB 41                      inc cx
  1761 00000FEC 83F800                  cmp ax, 0
  1762 00000FEF 75F2                    jne game_over_convert
  1763                                  game_over_display:
  1764 00000FF1 5A                      pop dx
  1765 00000FF2 88D0                    mov al, dl
  1766 00000FF4 B44F                    mov ah, 0x4F
  1767 00000FF6 268905                  mov word [es:di], ax
  1768 00000FF9 83C702                  add di, 2
  1769 00000FFC E2F3                    loop game_over_display
  1770                                  game_over_wait:
  1771 00000FFE B400                    mov ah, 0
  1772 00001000 CD16                    int 16h
  1773 00001002 1F                      pop ds
  1774 00001003 07                      pop es
  1775 00001004 5F                      pop di
  1776 00001005 59                      pop cx
  1777 00001006 5B                      pop bx
  1778 00001007 58                      pop ax
  1779 00001008 C3                      ret
  1780                                  
  1781                                  ;CLEAR PLAYER CAR 
  1782                                  clear_player_car:
  1783 00001009 50                      push ax
  1784 0000100A 51                      push cx
  1785 0000100B 57                      push di
  1786 0000100C 06                      push es
  1787 0000100D B800B8                  mov ax, 0B800h
  1788 00001010 8EC0                    mov es, ax
  1789 00001012 B82077                  mov ax, 0x7720
  1790 00001015 2E8B3E[2A00]            mov di, [cs:player_location]
  1791 0000101A 81C7C003                add di, 960
  1792 0000101E 57                      push di
  1793 0000101F 6A07                    push 7
  1794 00001021 50                      push ax
  1795 00001022 E8F200                  call draw
  1796 00001025 2E8B3E[2A00]            mov di, [cs:player_location]
  1797 0000102A 81C72403                add di, 804
  1798 0000102E 57                      push di
  1799 0000102F 6A03                    push 3
  1800 00001031 50                      push ax
  1801 00001032 E8E200                  call draw
  1802 00001035 2E8B3E[2A00]            mov di, [cs:player_location]
  1803 0000103A 81C72A03                add di, 810
  1804 0000103E 26C7052077              mov word [es:di], 0x7720
  1805 00001043 2E8B3E[2A00]            mov di, [cs:player_location]
  1806 00001048 81C72203                add di, 802
  1807 0000104C 26C7052077              mov word [es:di], 0x7720
  1808 00001051 2E8B3E[2A00]            mov di, [cs:player_location]
  1809 00001056 81C72003                add di, 800
  1810 0000105A 57                      push di
  1811 0000105B 6A01                    push 1
  1812 0000105D 50                      push ax
  1813 0000105E E8B600                  call draw
  1814 00001061 2E8B3E[2A00]            mov di, [cs:player_location]
  1815 00001066 81C72C03                add di, 812
  1816 0000106A 57                      push di
  1817 0000106B 6A01                    push 1
  1818 0000106D 50                      push ax
  1819 0000106E E8A600                  call draw
  1820 00001071 2E8B3E[2A00]            mov di, [cs:player_location]
  1821 00001076 81C78202                add di, 642
  1822 0000107A 57                      push di
  1823 0000107B 6A05                    push 5
  1824 0000107D 50                      push ax
  1825 0000107E E89600                  call draw
  1826 00001081 2E8B3E[2A00]            mov di, [cs:player_location]
  1827 00001086 81C7E201                add di, 482
  1828 0000108A 57                      push di
  1829 0000108B 6A05                    push 5
  1830 0000108D 50                      push ax
  1831 0000108E E88600                  call draw
  1832 00001091 2E8B3E[2A00]            mov di, [cs:player_location]
  1833 00001096 81C7E601                add di, 486
  1834 0000109A 57                      push di
  1835 0000109B 6A01                    push 1
  1836 0000109D 50                      push ax
  1837 0000109E E87600                  call draw
  1838 000010A1 2E8B3E[2A00]            mov di, [cs:player_location]
  1839 000010A6 81C74201                add di, 322
  1840 000010AA 57                      push di
  1841 000010AB 6A05                    push 5
  1842 000010AD 50                      push ax
  1843 000010AE E86600                  call draw
  1844 000010B1 2E8B3E[2A00]            mov di, [cs:player_location]
  1845 000010B6 81C7A400                add di, 164
  1846 000010BA 57                      push di
  1847 000010BB 6A03                    push 3
  1848 000010BD 50                      push ax
  1849 000010BE E85600                  call draw
  1850 000010C1 2E8B3E[2A00]            mov di, [cs:player_location]
  1851 000010C6 81C7AA00                add di, 170
  1852 000010CA 26C7052077              mov word [es:di], 0x7720
  1853 000010CF 2E8B3E[2A00]            mov di, [cs:player_location]
  1854 000010D4 81C7A200                add di, 162
  1855 000010D8 26C7052077              mov word [es:di], 0x7720
  1856 000010DD 2E8B3E[2A00]            mov di, [cs:player_location]
  1857 000010E2 81C7A000                add di, 160
  1858 000010E6 57                      push di
  1859 000010E7 6A01                    push 1
  1860 000010E9 50                      push ax
  1861 000010EA E82A00                  call draw
  1862 000010ED 2E8B3E[2A00]            mov di, [cs:player_location]
  1863 000010F2 81C7AC00                add di, 172
  1864 000010F6 57                      push di
  1865 000010F7 6A01                    push 1
  1866 000010F9 50                      push ax
  1867 000010FA E81A00                  call draw
  1868 000010FD 2E8B3E[2A00]            mov di, [cs:player_location]
  1869 00001102 57                      push di
  1870 00001103 6A07                    push 7
  1871 00001105 50                      push ax
  1872 00001106 E80E00                  call draw
  1873 00001109 07                      pop es
  1874 0000110A 5F                      pop di
  1875 0000110B 59                      pop cx
  1876 0000110C 58                      pop ax
  1877 0000110D C3                      ret
  1878                                  
  1879                                  
  1880                                  delay:
  1881 0000110E 53                      push bx
  1882 0000110F BBFF3F                  mov bx, 0x3FFF
  1883                                  .delay_loop:
  1884 00001112 4B                      dec bx
  1885 00001113 75FD                    jnz .delay_loop
  1886 00001115 5B                      pop bx
  1887 00001116 C3                      ret
  1888                                  
  1889                                  draw:
  1890 00001117 55                      push bp
  1891 00001118 89E5                    mov bp, sp
  1892 0000111A 06                      push es
  1893 0000111B 57                      push di
  1894 0000111C 51                      push cx
  1895 0000111D B800B8                  mov ax, 0B800h
  1896 00001120 8EC0                    mov es, ax
  1897 00001122 8B7E08                  mov di, [bp+8]
  1898 00001125 8B4604                  mov ax, [bp+4]
  1899 00001128 8B4E06                  mov cx, [bp+6]
  1900 0000112B F3AB                    rep stosw
  1901 0000112D 59                      pop cx
  1902 0000112E 5F                      pop di
  1903 0000112F 07                      pop es
  1904 00001130 5D                      pop bp
  1905 00001131 C20600                  ret 6
  1906                                  
  1907                                  drawCar:
  1908 00001134 55                      push bp
  1909 00001135 89E5                    mov bp, sp
  1910 00001137 50                      push ax
  1911 00001138 53                      push bx
  1912 00001139 51                      push cx
  1913 0000113A 57                      push di
  1914 0000113B 06                      push es
  1915 0000113C B800B8                  mov ax, 0B800h
  1916 0000113F 8EC0                    mov es, ax
  1917 00001141 8B5604                  mov dx, [bp+4]
  1918 00001144 8B5E06                  mov bx, [bp+6]
  1919 00001147 89D8                    mov ax, bx
  1920 00001149 05C003                  add ax, 960
  1921 0000114C 50                      push ax
  1922 0000114D 6A07                    push 7
  1923 0000114F 52                      push dx
  1924 00001150 E8C4FF                  call draw
  1925 00001153 89D8                    mov ax, bx
  1926 00001155 052403                  add ax, 804
  1927 00001158 50                      push ax
  1928 00001159 6A03                    push 3
  1929 0000115B 52                      push dx
  1930 0000115C E8B8FF                  call draw
  1931 0000115F 89D8                    mov ax, bx
  1932 00001161 052A03                  add ax, 810
  1933 00001164 89C7                    mov di, ax
  1934 00001166 B82D70                  mov ax, 0x702D
  1935 00001169 AB                      stosw
  1936 0000116A 89D8                    mov ax, bx
  1937 0000116C 052203                  add ax, 802
  1938 0000116F 89C7                    mov di, ax
  1939 00001171 B82D70                  mov ax, 0x702D
  1940 00001174 AB                      stosw
  1941 00001175 89D8                    mov ax, bx
  1942 00001177 052003                  add ax, 800
  1943 0000117A 50                      push ax
  1944 0000117B 6A01                    push 1
  1945 0000117D 682007                  push 0x0720
  1946 00001180 E894FF                  call draw
  1947 00001183 89D8                    mov ax, bx
  1948 00001185 052C03                  add ax, 812
  1949 00001188 50                      push ax
  1950 00001189 6A01                    push 1
  1951 0000118B 682007                  push 0x0720
  1952 0000118E E886FF                  call draw
  1953 00001191 89D8                    mov ax, bx
  1954 00001193 058202                  add ax, 642
  1955 00001196 50                      push ax
  1956 00001197 6A05                    push 5
  1957 00001199 52                      push dx
  1958 0000119A E87AFF                  call draw
  1959 0000119D 89D8                    mov ax, bx
  1960 0000119F 05E201                  add ax, 482
  1961 000011A2 50                      push ax
  1962 000011A3 6A05                    push 5
  1963 000011A5 52                      push dx
  1964 000011A6 E86EFF                  call draw
  1965 000011A9 89D8                    mov ax, bx
  1966 000011AB 05E601                  add ax, 486
  1967 000011AE 50                      push ax
  1968 000011AF 6A01                    push 1
  1969 000011B1 682007                  push 0x0720
  1970 000011B4 E860FF                  call draw
  1971 000011B7 89D8                    mov ax, bx
  1972 000011B9 054201                  add ax, 322
  1973 000011BC 50                      push ax
  1974 000011BD 6A05                    push 5
  1975 000011BF 52                      push dx
  1976 000011C0 E854FF                  call draw
  1977 000011C3 89D8                    mov ax, bx
  1978 000011C5 05A400                  add ax, 164
  1979 000011C8 50                      push ax
  1980 000011C9 6A03                    push 3
  1981 000011CB 52                      push dx
  1982 000011CC E848FF                  call draw
  1983 000011CF 89D8                    mov ax, bx
  1984 000011D1 05AA00                  add ax, 170
  1985 000011D4 89C7                    mov di, ax
  1986 000011D6 B82D70                  mov ax, 0x702D
  1987 000011D9 AB                      stosw
  1988 000011DA 89D8                    mov ax, bx
  1989 000011DC 05A200                  add ax, 162
  1990 000011DF 89C7                    mov di, ax
  1991 000011E1 B82D70                  mov ax, 0x702D
  1992 000011E4 AB                      stosw
  1993 000011E5 89D8                    mov ax, bx
  1994 000011E7 05A000                  add ax, 160
  1995 000011EA 50                      push ax
  1996 000011EB 6A01                    push 1
  1997 000011ED 682007                  push 0x0720
  1998 000011F0 E824FF                  call draw
  1999 000011F3 89D8                    mov ax, bx
  2000 000011F5 05AC00                  add ax, 172
  2001 000011F8 50                      push ax
  2002 000011F9 6A01                    push 1
  2003 000011FB 682007                  push 0x0720
  2004 000011FE E816FF                  call draw
  2005 00001201 53                      push bx
  2006 00001202 6A07                    push 7
  2007 00001204 52                      push dx
  2008 00001205 E80FFF                  call draw
  2009 00001208 07                      pop es
  2010 00001209 5F                      pop di
  2011 0000120A 59                      pop cx
  2012 0000120B 5B                      pop bx
  2013 0000120C 58                      pop ax
  2014 0000120D 5D                      pop bp
  2015 0000120E C20400                  ret 4
  2016                                  
  2017                                  draw_tree:
  2018 00001211 55                      push bp
  2019 00001212 89E5                    mov bp, sp
  2020 00001214 B800B8                  mov ax, 0B800h
  2021 00001217 8EC0                    mov es, ax
  2022 00001219 8B7604                  mov si, [bp+4]
  2023 0000121C B81E2A                  mov ax, 0x2A1E
  2024 0000121F 89F7                    mov di, si
  2025 00001221 B90100                  mov cx, 1
  2026 00001224 F3AB                    rep stosw
  2027 00001226 89F7                    mov di, si
  2028 00001228 81C7A000                add di, 160
  2029 0000122C 83EF02                  sub di, 2
  2030 0000122F B90300                  mov cx, 3
  2031 00001232 F3AB                    rep stosw
  2032 00001234 89F7                    mov di, si
  2033 00001236 81C74001                add di, 320
  2034 0000123A 83EF04                  sub di, 4
  2035 0000123D B90500                  mov cx, 5
  2036 00001240 F3AB                    rep stosw
  2037 00001242 B426                    mov ah, 0x26
  2038 00001244 B07C                    mov al, 124
  2039 00001246 89F7                    mov di, si
  2040 00001248 81C7E001                add di, 480
  2041 0000124C AB                      stosw
  2042 0000124D 5D                      pop bp
  2043 0000124E C20200                  ret 2
  2044                                  
  2045                                  draw_footpath:
  2046 00001251 55                      push bp
  2047 00001252 89E5                    mov bp, sp
  2048 00001254 50                      push ax
  2049 00001255 53                      push bx
  2050 00001256 51                      push cx
  2051 00001257 57                      push di
  2052 00001258 56                      push si
  2053 00001259 06                      push es
  2054 0000125A B800B8                  mov ax, 0xB800
  2055 0000125D 8EC0                    mov es, ax
  2056 0000125F BB5000                  mov bx, 80
  2057                                  
  2058 00001262 B91900                  mov cx, 25
  2059 00001265 31F6                    xor si, si
  2060                                  .left_border:
  2061 00001267 89F0                    mov ax, si
  2062 00001269 F7E3                    mul bx
  2063 0000126B 034604                  add ax, [bp+4]
  2064 0000126E 48                      dec ax
  2065 0000126F D1E0                    shl ax, 1
  2066 00001271 89C7                    mov di, ax
  2067 00001273 26C705DB00              mov word [es:di], 0x00DB
  2068 00001278 46                      inc si
  2069 00001279 E2EC                    loop .left_border
  2070                                  
  2071 0000127B B91900                  mov cx, 25
  2072 0000127E 31F6                    xor si, si
  2073                                  .footpath:
  2074 00001280 89F0                    mov ax, si
  2075 00001282 F7E3                    mul bx
  2076 00001284 034604                  add ax, [bp+4]
  2077 00001287 D1E0                    shl ax, 1
  2078 00001289 89C7                    mov di, ax
  2079 0000128B 26C705DB7E              mov word [es:di], 0x7EDB
  2080 00001290 46                      inc si
  2081 00001291 E2ED                    loop .footpath
  2082                                  
  2083 00001293 B91900                  mov cx, 25
  2084 00001296 31F6                    xor si, si
  2085                                  .right_border:
  2086 00001298 89F0                    mov ax, si
  2087 0000129A F7E3                    mul bx
  2088 0000129C 034604                  add ax, [bp+4]
  2089 0000129F 40                      inc ax
  2090 000012A0 D1E0                    shl ax, 1
  2091 000012A2 89C7                    mov di, ax
  2092 000012A4 26C705DB00              mov word [es:di], 0x00DB
  2093 000012A9 46                      inc si
  2094 000012AA E2EC                    loop .right_border
  2095                                  
  2096 000012AC 07                      pop es
  2097 000012AD 5E                      pop si
  2098 000012AE 5F                      pop di
  2099 000012AF 59                      pop cx
  2100 000012B0 5B                      pop bx
  2101 000012B1 58                      pop ax
  2102 000012B2 5D                      pop bp
  2103 000012B3 C20200                  ret 2
  2104                                  
  2105                                  draw_landscape:
  2106 000012B6 55                      push bp
  2107 000012B7 89E5                    mov bp, sp
  2108 000012B9 50                      push ax
  2109 000012BA 53                      push bx
  2110 000012BB 51                      push cx
  2111 000012BC 57                      push di
  2112 000012BD 8B5E04                  mov bx, [bp+4]
  2113 000012C0 8B7E06                  mov di, [bp+6]
  2114 000012C3 B91900                  mov cx, 25
  2115                                  .landscape_loop:
  2116 000012C6 50                      push ax
  2117 000012C7 51                      push cx
  2118 000012C8 57                      push di
  2119 000012C9 B82020                  mov ax, 0x2020
  2120 000012CC 89D9                    mov cx, bx
  2121 000012CE F3AB                    rep stosw
  2122 000012D0 5F                      pop di
  2123 000012D1 59                      pop cx
  2124 000012D2 58                      pop ax
  2125 000012D3 81C7A000                add di, 160
  2126 000012D7 49                      dec cx
  2127 000012D8 75EC                    jnz .landscape_loop
  2128 000012DA 5F                      pop di
  2129 000012DB 59                      pop cx
  2130 000012DC 5B                      pop bx
  2131 000012DD 58                      pop ax
  2132 000012DE 5D                      pop bp
  2133 000012DF C20400                  ret 4
  2134                                  
  2135                                  draw_road_marker:
  2136 000012E2 55                      push bp
  2137 000012E3 89E5                    mov bp, sp
  2138 000012E5 50                      push ax
  2139 000012E6 53                      push bx
  2140 000012E7 51                      push cx
  2141 000012E8 57                      push di
  2142 000012E9 56                      push si
  2143 000012EA BB5000                  mov bx, 80
  2144 000012ED B91900                  mov cx, 25
  2145 000012F0 31F6                    xor si, si
  2146                                  .marker_loop:
  2147 000012F2 89F0                    mov ax, si
  2148 000012F4 F7E3                    mul bx
  2149 000012F6 034606                  add ax, [bp+6]
  2150 000012F9 D1E0                    shl ax, 1
  2151 000012FB 89C7                    mov di, ax
  2152 000012FD 8B4604                  mov ax, [bp+4]
  2153 00001300 268905                  mov [es:di], ax
  2154 00001303 46                      inc si
  2155 00001304 E2EC                    loop .marker_loop
  2156 00001306 5E                      pop si
  2157 00001307 5F                      pop di
  2158 00001308 59                      pop cx
  2159 00001309 5B                      pop bx
  2160 0000130A 58                      pop ax
  2161 0000130B 5D                      pop bp
  2162 0000130C C20400                  ret 4
  2163                                  
  2164                                  ;Intro screen 
  2165                                  show_intro:
  2166 0000130F 50                      push ax
  2167 00001310 53                      push bx
  2168 00001311 51                      push cx
  2169 00001312 52                      push dx
  2170 00001313 56                      push si
  2171 00001314 57                      push di
  2172 00001315 06                      push es
  2173 00001316 1E                      push ds
  2174                                  
  2175 00001317 E8FEEE                  call clear_display
  2176                                  
  2177 0000131A 6A0E                    push 0x0E
  2178 0000131C 6A1E                    push 30
  2179 0000131E 6A09                    push 9
  2180 00001320 68[BB13]                push intro_message1
  2181 00001323 E8BFEE                  call display_string
  2182                                  
  2183 00001326 6A0C                    push 0x0C
  2184 00001328 6A1B                    push 27
  2185 0000132A 6A0B                    push 11
  2186 0000132C 68[C613]                push intro_message2
  2187 0000132F E8B3EE                  call display_string
  2188                                  
  2189 00001332 6A0A                    push 0x0A
  2190 00001334 6A1E                    push 30
  2191 00001336 6A0D                    push 13
  2192 00001338 68[D813]                push intro_message3
  2193 0000133B E8A7EE                  call display_string
  2194                                  
  2195 0000133E B93000                  mov cx, 0x0030
  2196 00001341 BA0000                  mov dx, 0x0000
  2197 00001344 B486                    mov ah, 0x86
  2198 00001346 CD15                    int 0x15
  2199                                  
  2200 00001348 1F                      pop ds
  2201 00001349 07                      pop es
  2202 0000134A 5F                      pop di
  2203 0000134B 5E                      pop si
  2204 0000134C 5A                      pop dx
  2205 0000134D 59                      pop cx
  2206 0000134E 5B                      pop bx
  2207 0000134F 58                      pop ax
  2208 00001350 C3                      ret
  2209                                  
  2210                                  ;cover page 
  2211                                  show_cover:
  2212 00001351 50                      push ax
  2213 00001352 53                      push bx
  2214 00001353 51                      push cx
  2215 00001354 52                      push dx
  2216 00001355 56                      push si
  2217 00001356 57                      push di
  2218 00001357 06                      push es
  2219 00001358 1E                      push ds
  2220                                  
  2221 00001359 E8BCEE                  call clear_display
  2222 0000135C E8D6EE                  call draw_frame
  2223                                  
  2224 0000135F 6A0E                    push 0x0E
  2225 00001361 6A12                    push 18
  2226 00001363 6A06                    push 6
  2227 00001365 68[4A01]                push creator_names
  2228 00001368 E87AEE                  call display_string
  2229                                  
  2230 0000136B 6A0F                    push 0x0F
  2231 0000136D 6A1E                    push 30
  2232 0000136F 6A08                    push 8
  2233 00001371 68[7C01]                push section_text
  2234 00001374 E86EEE                  call display_string
  2235                                  
  2236 00001377 6A0C                    push 0x0C
  2237 00001379 6A21                    push 33
  2238 0000137B 6A0B                    push 11
  2239 0000137D 68[9101]                push game_title
  2240 00001380 E862EE                  call display_string
  2241                                  
  2242 00001383 6A0B                    push 0x0B
  2243 00001385 6A23                    push 35
  2244 00001387 6A0D                    push 13
  2245 00001389 68[9E01]                push loading_text
  2246 0000138C E856EE                  call display_string
  2247                                  
  2248 0000138F 6A0E                    push 0x0E
  2249 00001391 6A1B                    push 27
  2250 00001393 6A18                    push 24
  2251 00001395 68[A901]                push key_prompt
  2252 00001398 E84AEE                  call display_string
  2253                                  
  2254 0000139B 31C9                    xor cx, cx
  2255                                  .animation_loop:
  2256 0000139D 51                      push cx
  2257 0000139E E8C2EE                  call update_progress_bar
  2258 000013A1 51                      push cx
  2259 000013A2 E8F4EE                  call show_percentage
  2260 000013A5 E866FD                  call delay
  2261 000013A8 41                      inc cx
  2262 000013A9 83F965                  cmp cx, 101
  2263 000013AC 75EF                    jne .animation_loop
  2264                                  
  2265 000013AE B400                    mov ah, 0x00
  2266 000013B0 CD16                    int 0x16
  2267                                  
  2268 000013B2 1F                      pop ds
  2269 000013B3 07                      pop es
  2270 000013B4 5F                      pop di
  2271 000013B5 5E                      pop si
  2272 000013B6 5A                      pop dx
  2273 000013B7 59                      pop cx
  2274 000013B8 5B                      pop bx
  2275 000013B9 58                      pop ax
  2276 000013BA C3                      ret
  2277                                  
  2278                                  
  2279 000013BB 57454C434F4D452054-     intro_message1: db 'WELCOME TO', 0
  2279 000013C4 4F00               
  2280 000013C6 524143454341522047-     intro_message2: db 'RACECAR GAME 2025', 0
  2280 000013CF 414D45203230323500 
  2281 000013D8 474554205245414459-     intro_message3: db 'GET READY!', 0
  2281 000013E1 2100               
  2282                                   
  2283                                  start:
  2284 000013E3 E829FF                  call show_intro
  2285                                  
  2286 000013E6 E868FF                  call show_cover
  2287                                  
  2288 000013E9 B81027                  mov ax, 10000
  2289 000013EC E640                    out 0x40, al
  2290 000013EE 88E0                    mov al, ah
  2291 000013F0 E640                    out 0x40, al
  2292 000013F2 2EC606[0300]00          mov byte [cs:game_over_flag], 0
  2293 000013F8 2EC606[0400]00          mov byte [cs:bonus_flag], 0
  2294 000013FE 2EC606[0C00]00          mov byte [cs:game_paused], 0
  2295 00001404 2EC706[0500]0000        mov word [cs:player_score], 0
  2296 0000140B 2EC706[2A00]E80A        mov word [cs:player_location], 2792
  2297 00001412 2EC606[2C00]01          mov byte [cs:current_player_lane], 1
  2298 00001418 2EC606[0700]00          mov byte [cs:scroll_active], 0
  2299 0000141E 2EC706[0800]0000        mov word [cs:time_counter], 0
  2300 00001425 2EC706[0A00]0500        mov word [cs:game_speed], 5
  2301 0000142C E83DF1                  call init_enemy_system
  2302 0000142F E887F0                  call setup_keyboard
  2303 00001432 E8ACF0                  call setup_timer
  2304                                  
  2305 00001435 B800B8                  mov ax, 0B800h
  2306 00001438 8EC0                    mov es, ax
  2307 0000143A BF0000                  mov di, 0
  2308 0000143D B82077                  mov ax, 0x7720
  2309 00001440 B9D007                  mov cx, 2000
  2310 00001443 F3AB                    rep stosw
  2311                                  
  2312 00001445 6A14                    push 20
  2313 00001447 E807FE                  call draw_footpath
  2314 0000144A 6A3A                    push 58
  2315 0000144C E802FE                  call draw_footpath
  2316 0000144F 6A00                    push 0
  2317 00001451 6A13                    push 19
  2318                                  
  2319 00001453 B800B8                  mov ax, 0xB800
  2320 00001456 8EC0                    mov es, ax
  2321 00001458 BF2600                  mov di, (20-1)*2
  2322 0000145B 26C705DB00              mov word [es:di], 0x00DB
  2323 00001460 BF2800                  mov di, 20*2
  2324 00001463 26C705DB7E              mov word [es:di], 0x7EDB
  2325 00001468 BF2A00                  mov di, (20+1)*2
  2326 0000146B 26C705DB00              mov word [es:di], 0x00DB
  2327 00001470 BF7200                  mov di, (58-1)*2
  2328 00001473 26C705DB00              mov word [es:di], 0x00DB
  2329 00001478 BF7400                  mov di, 58*2
  2330 0000147B 26C705DB7E              mov word [es:di], 0x7EDB
  2331 00001480 BF7600                  mov di, (58+1)*2
  2332 00001483 26C705DB00              mov word [es:di], 0x00DB
  2333                                  
  2334 00001488 E82BFE                  call draw_landscape
  2335 0000148B 6A78                    push 120
  2336 0000148D 6A15                    push 21
  2337 0000148F E824FE                  call draw_landscape
  2338 00001492 6A20                    push 32
  2339 00001494 687C7F                  push 0x7F7C
  2340 00001497 E848FE                  call draw_road_marker
  2341 0000149A 6A2D                    push 45
  2342 0000149C 687C7F                  push 0x7F7C
  2343 0000149F E840FE                  call draw_road_marker
  2344                                  
  2345 000014A2 680A03                  push 778
  2346 000014A5 E869FD                  call draw_tree
  2347 000014A8 680E03                  push 782
  2348 000014AB E863FD                  call draw_tree
  2349 000014AE 685806                  push 1624
  2350 000014B1 E85DFD                  call draw_tree
  2351 000014B4 685206                  push 1618
  2352 000014B7 E857FD                  call draw_tree
  2353 000014BA 68D60B                  push 3030
  2354 000014BD E851FD                  call draw_tree
  2355 000014C0 68A800                  push 168
  2356 000014C3 E84BFD                  call draw_tree
  2357 000014C6 68E80B                  push 3048
  2358 000014C9 E845FD                  call draw_tree
  2359 000014CC 686007                  push 1888
  2360 000014CF E83FFD                  call draw_tree
  2361 000014D2 686607                  push 1894
  2362 000014D5 E839FD                  call draw_tree
  2363                                  
  2364 000014D8 2EFF36[2A00]            push word [cs:player_location]
  2365 000014DD 682045                  push 0x4520
  2366 000014E0 E851FC                  call drawCar
  2367 000014E3 E891F9                  call update_score_display
  2368                                  
  2369 000014E6 B80500                  mov ax, 5
  2370 000014E9 50                      push ax
  2371 000014EA E881F8                  call scrolldown_cyclic
  2372                                  
  2373 000014ED 2E803E[0300]01          cmp byte [cs:game_over_flag], 1
  2374 000014F3 7503                    jne .terminateProgram
  2375 000014F5 E80FFA                  call show_game_over
  2376                                  
  2377                                  .terminateProgram:
  2378 000014F8 E80EF0                  call restore_keyboard
  2379 000014FB E82AF0                  call restore_timer
  2380 000014FE B8004C                  mov ax, 0x4C00
  2381 00001501 CD21                    int 0x21
